

Microchip MPLAB XC8 Assembler V2.31 build 20201012212115 
                                                                                               Mon Dec 14 22:03:01 2020

Microchip MPLAB XC8 C Compiler v2.31 (Free license) build 20201012212115 Og1 
     1                           	processor	18F4550
     2                           	fnconf	rparam,??,?,0
     3                           	pagewidth 120
     4                           	opt	flic
     5                           	psect	smallconst,global,reloc=2,class=SMALLCONST,delta=1,noexec
     6                           	psect	cinit,global,reloc=2,class=CODE,delta=1
     7                           	psect	bssBANK0,global,class=BANK0,space=1,delta=1,lowdata,noexec
     8                           	psect	bssBANK1,global,class=BANK1,space=1,delta=1,lowdata,noexec
     9                           	psect	cstackBANK0,global,class=BANK0,space=1,delta=1,lowdata,noexec
    10                           	psect	cstackCOMRAM,global,class=COMRAM,space=1,delta=1,lowdata,noexec
    11                           	psect	text0,global,reloc=2,class=CODE,delta=1
    12                           	psect	text1,global,reloc=2,class=CODE,delta=1,group=3
    13                           	psect	text2,global,reloc=2,class=CODE,delta=1,group=3
    14                           	psect	text3,global,reloc=2,class=CODE,delta=1,group=3
    15                           	psect	text4,global,reloc=2,class=CODE,delta=1,group=1
    16                           	psect	text5,global,reloc=2,class=CODE,delta=1,group=1
    17                           	psect	text6,global,reloc=2,class=CODE,delta=1,group=1
    18                           	psect	text7,global,reloc=2,class=CODE,delta=1,group=1
    19                           	psect	text8,global,reloc=2,class=CODE,delta=1,group=3
    20                           	psect	text9,global,reloc=2,class=CODE,delta=1,group=3
    21                           	psect	text10,global,reloc=2,class=CODE,delta=1,group=3
    22                           	psect	text11,global,reloc=2,class=CODE,delta=1,group=3
    23                           	psect	text12,global,reloc=2,class=CODE,delta=1,group=3
    24                           	psect	text13,global,reloc=2,class=CODE,delta=1,group=2
    25                           	psect	text14,global,reloc=2,class=CODE,delta=1,group=2
    26                           	psect	text15,global,reloc=2,class=CODE,delta=1,group=3
    27                           	psect	text16,global,reloc=2,class=CODE,delta=1
    28                           	psect	text17,global,reloc=2,class=CODE,delta=1
    29                           	psect	text18,global,reloc=2,class=CODE,delta=1
    30                           	psect	text19,global,reloc=2,class=CODE,delta=1,group=2
    31                           	psect	text20,global,reloc=2,class=CODE,delta=1,group=2
    32                           	psect	text21,global,reloc=2,class=CODE,delta=1,group=2
    33                           	psect	text22,global,reloc=2,class=CODE,delta=1,group=2
    34                           	psect	text23,global,reloc=2,class=CODE,delta=1
    35                           	psect	text24,global,reloc=2,class=CODE,delta=1
    36                           	psect	text25,global,reloc=2,class=CODE,delta=1
    37                           	psect	text26,global,reloc=2,class=CODE,delta=1
    38                           	psect	text27,global,reloc=2,class=CODE,delta=1
    39                           	psect	text28,global,reloc=2,class=CODE,delta=1
    40                           	psect	text29,global,reloc=2,class=CODE,delta=1
    41                           	psect	text30,global,reloc=2,class=CODE,delta=1
    42                           	psect	text31,global,reloc=2,class=CODE,delta=1
    43                           	psect	text32,global,reloc=2,class=CODE,delta=1
    44                           	psect	text33,global,reloc=2,class=CODE,delta=1
    45                           	psect	intsave_regs,global,class=BIGRAM,space=1,delta=1,noexec
    46                           	psect	rparam,global,class=COMRAM,space=1,delta=1,noexec
    47                           	psect	idloc,global,abs,ovrld,class=IDLOC,space=5,delta=1,noexec
    48                           	psect	config,global,abs,ovrld,class=CONFIG,space=4,delta=1,noexec
    49  0000                     
    50                           ; Version 2.20
    51                           ; Generated 12/02/2020 GMT
    52                           ; 
    53                           ; Copyright © 2020, Microchip Technology Inc. and its subsidiaries ("Microchip")
    54                           ; All rights reserved.
    55                           ; 
    56                           ; This software is developed by Microchip Technology Inc. and its subsidiaries ("Microch
      +                          ip").
    57                           ; 
    58                           ; Redistribution and use in source and binary forms, with or without modification, are
    59                           ; permitted provided that the following conditions are met:
    60                           ; 
    61                           ;     1. Redistributions of source code must retain the above copyright notice, this lis
      +                          t of
    62                           ;        conditions and the following disclaimer.
    63                           ; 
    64                           ;     2. Redistributions in binary form must reproduce the above copyright notice, this 
      +                          list
    65                           ;        of conditions and the following disclaimer in the documentation and/or other
    66                           ;        materials provided with the distribution.
    67                           ; 
    68                           ;     3. Microchip's name may not be used to endorse or promote products derived from th
      +                          is
    69                           ;        software without specific prior written permission.
    70                           ; 
    71                           ; THIS SOFTWARE IS PROVIDED BY MICROCHIP "AS IS" AND ANY EXPRESS OR IMPLIED WARRANTIES,
    72                           ; INCLUDING, BUT NOT LIMITED TO, THE IMPLIED WARRANTIES OF MERCHANTABILITY AND FITNESS F
      +                          OR
    73                           ; PURPOSE ARE DISCLAIMED.  IN NO EVENT SHALL MICROCHIP BE LIABLE FOR ANY DIRECT, INDIREC
      +                          T,
    74                           ; INCIDENTAL, SPECIAL, EXEMPLARY, OR CONSEQUENTIAL DAMAGES (INCLUDING BUT NOT LIMITED TO
    75                           ; PROCUREMENT OF SUBSTITUTE GOODS OR SERVICES; LOSS OF USE, DATA OR PROFITS; OR BUSINESS
    76                           ; INTERRUPTION) HOWSOEVER CAUSED AND ON ANY THEORY OF LIABILITY, WHETHER IN CONTRACT, ST
      +                          RICT
    77                           ; LIABILITY, OR TORT (INCLUDING NEGLIGENCE OR OTHERWISE) ARISING IN ANY WAY OUT OF THE U
      +                          SE OF
    78                           ; THIS SOFTWARE, EVEN IF ADVISED OF THE POSSIBILITY OF SUCH DAMAGE.
    79                           ; 
    80                           ; 
    81                           ; Code-generator required, PIC18F4550 Definitions
    82                           ; 
    83                           ; SFR Addresses
    84  0000                     _RCREG	set	4014
    85  0000                     _RCSTAbits	set	4011
    86  0000                     _TXREG	set	4013
    87  0000                     _RCSTA	set	4011
    88  0000                     _TXSTA	set	4012
    89  0000                     _SPBRG	set	4015
    90  0000                     _TRISAbits	set	3986
    91  0000                     _PORTAbits	set	3968
    92  0000                     _ADCON0bits	set	4034
    93  0000                     _ADCON0	set	4034
    94  0000                     _ADRESL	set	4035
    95  0000                     _ADRESH	set	4036
    96  0000                     _ADCON2	set	4032
    97  0000                     _ADCON1	set	4033
    98  0000                     _TRISA	set	3986
    99  0000                     _TRISD	set	3989
   100  0000                     _TRISC	set	3988
   101  0000                     _LATD	set	3980
   102  0000                     _PIE1bits	set	3997
   103  0000                     _INTCONbits	set	4082
   104  0000                     _TRISBbits	set	3987
   105  0000                     _OSCCON	set	4051
   106  0000                     _CREN	set	32092
   107  0000                     _RCIF	set	31989
   108  0000                     _TXIF	set	31988
   109  0000                     _TRISC7	set	31911
   110  0000                     _TRISC6	set	31910
   111  0000                     _LATA0	set	31816
   112  0000                     _GO	set	32273
   113  0000                     _ADON	set	32272
   114  0000                     _LATC2	set	31834
   115  0000                     _LATC1	set	31833
   116  0000                     _LATC0	set	31832
   117  0000                     _LATB3	set	31827
   118  0000                     _LATB2	set	31826
   119                           
   120                           	psect	smallconst
   121  000800                     __psmallconst:
   122                           	callstack 0
   123  000800  00                 	db	0
   124  000801                     STR_7:
   125  000801  48                 	db	72	;'H'
   126  000802  55                 	db	85	;'U'
   127  000803  4D                 	db	77	;'M'
   128  000804  45                 	db	69	;'E'
   129  000805  44                 	db	68	;'D'
   130  000806  49                 	db	73	;'I'
   131  000807  54                 	db	84	;'T'
   132  000808  59                 	db	89	;'Y'
   133  000809  3A                 	db	58	;':'
   134  00080A  20                 	db	32
   135  00080B  00                 	db	0
   136  00080C                     STR_2:
   137  00080C  54                 	db	84	;'T'
   138  00080D  49                 	db	73	;'I'
   139  00080E  4D                 	db	77	;'M'
   140  00080F  45                 	db	69	;'E'
   141  000810  3A                 	db	58	;':'
   142  000811  20                 	db	32
   143  000812  00                 	db	0
   144  000813                     STR_1:
   145  000813  44                 	db	68	;'D'
   146  000814  41                 	db	65	;'A'
   147  000815  54                 	db	84	;'T'
   148  000816  45                 	db	69	;'E'
   149  000817  3A                 	db	58	;':'
   150  000818  20                 	db	32
   151  000819  00                 	db	0
   152  00081A                     STR_4:
   153  00081A  54                 	db	84	;'T'
   154  00081B  45                 	db	69	;'E'
   155  00081C  4D                 	db	77	;'M'
   156  00081D  50                 	db	80	;'P'
   157  00081E  3A                 	db	58	;':'
   158  00081F  20                 	db	32
   159  000820  00                 	db	0
   160  000821                     STR_8:
   161  000821  2E                 	db	46
   162  000822  25                 	db	37
   163  000823  64                 	db	100	;'d'
   164  000824  20                 	db	32
   165  000825  00                 	db	0
   166  000826                     STR_5:
   167  000826  2E                 	db	46
   168  000827  25                 	db	37
   169  000828  64                 	db	100	;'d'
   170  000829  00                 	db	0
   171  00082A                     STR_14:
   172  00082A  0D                 	db	13
   173  00082B  0A                 	db	10
   174  00082C  00                 	db	0
   175  00082D                     STR_11:
   176  00082D  2C                 	db	44
   177  00082E  00                 	db	0
   178  00082F  00                 	db	0	; dummy byte at the end
   179  0000                     
   180                           ; #config settings
   181                           
   182                           	psect	cinit
   183  002588                     __pcinit:
   184                           	callstack 0
   185  002588                     start_initialization:
   186                           	callstack 0
   187  002588                     __initialization:
   188                           	callstack 0
   189                           
   190                           ; Clear objects allocated to BANK1 (50 bytes)
   191  002588  EE01  F000         	lfsr	0,__pbssBANK1
   192  00258C  0E32               	movlw	50
   193  00258E                     clear_0:
   194  00258E  6AEE               	clrf	postinc0,c
   195  002590  06E8               	decf	wreg,f,c
   196  002592  E1FD               	bnz	clear_0
   197                           
   198                           ; Clear objects allocated to BANK0 (90 bytes)
   199  002594  EE00  F060         	lfsr	0,__pbssBANK0
   200  002598  0E5A               	movlw	90
   201  00259A                     clear_1:
   202  00259A  6AEE               	clrf	postinc0,c
   203  00259C  06E8               	decf	wreg,f,c
   204  00259E  E1FD               	bnz	clear_1
   205  0025A0                     end_of_initialization:
   206                           	callstack 0
   207  0025A0                     __end_of__initialization:
   208                           	callstack 0
   209  0025A0  0E00               	movlw	low (__Lmediumconst shr (0+16))
   210  0025A2  6EF8               	movwf	tblptru,c
   211  0025A4  0100               	movlb	0
   212  0025A6  EFB6  F009         	goto	_main	;jump to C main() function
   213                           
   214                           	psect	bssBANK0
   215  000060                     __pbssBANK0:
   216                           	callstack 0
   217  000060                     _nout:
   218                           	callstack 0
   219  000060                     	ds	2
   220  000062                     _width:
   221                           	callstack 0
   222  000062                     	ds	2
   223  000064                     _prec:
   224                           	callstack 0
   225  000064                     	ds	2
   226  000066                     _flags:
   227                           	callstack 0
   228  000066                     	ds	2
   229  000068                     _val_aux:
   230                           	callstack 0
   231  000068                     	ds	50
   232  00009A                     _dbuf:
   233                           	callstack 0
   234  00009A                     	ds	32
   235                           
   236                           	psect	bssBANK1
   237  000100                     __pbssBANK1:
   238                           	callstack 0
   239  000100                     _stringBT:
   240                           	callstack 0
   241  000100                     	ds	50
   242                           
   243                           	psect	cstackBANK0
   244  0000BA                     __pcstackBANK0:
   245                           	callstack 0
   246  0000BA                     	ds	2
   247  0000BC                     sprintf@ap:
   248                           	callstack 0
   249                           
   250                           ; 2 bytes @ 0x2
   251  0000BC                     	ds	2
   252  0000BE                     sprintf@f:
   253                           	callstack 0
   254                           
   255                           ; 6 bytes @ 0x4
   256  0000BE                     	ds	7
   257  0000C5                     main@value:
   258                           	callstack 0
   259                           
   260                           ; 10 bytes @ 0xB
   261  0000C5                     	ds	10
   262  0000CF                     main@RH_Decimal:
   263                           	callstack 0
   264                           
   265                           ; 1 bytes @ 0x15
   266  0000CF                     	ds	1
   267  0000D0                     main@T_Decimal:
   268                           	callstack 0
   269                           
   270                           ; 1 bytes @ 0x16
   271  0000D0                     	ds	1
   272  0000D1                     main@RH_Integral:
   273                           	callstack 0
   274                           
   275                           ; 1 bytes @ 0x17
   276  0000D1                     	ds	1
   277  0000D2                     main@T_Integral:
   278                           	callstack 0
   279                           
   280                           ; 1 bytes @ 0x18
   281  0000D2                     	ds	1
   282                           
   283                           	psect	cstackCOMRAM
   284  000001                     __pcstackCOMRAM:
   285                           	callstack 0
   286  000001                     ??_DHT11_Start:
   287  000001                     ?_strlen:
   288                           	callstack 0
   289  000001                     ?___fltol:
   290                           	callstack 0
   291  000001                     ?___xxtofl:
   292                           	callstack 0
   293  000001                     ?___aodiv:
   294                           	callstack 0
   295  000001                     ?___aomod:
   296                           	callstack 0
   297  000001                     Irrigation_Management@T:
   298                           	callstack 0
   299  000001                     DHT11_ReadData@i:
   300                           	callstack 0
   301  000001                     USART_TxChar@out:
   302                           	callstack 0
   303  000001                     MSdelay@val:
   304                           	callstack 0
   305  000001                     memset@dest:
   306                           	callstack 0
   307  000001                     fputc@c:
   308                           	callstack 0
   309  000001                     strlen@s:
   310                           	callstack 0
   311  000001                     ___fltol@f1:
   312                           	callstack 0
   313  000001                     ___xxtofl@val:
   314                           	callstack 0
   315  000001                     ___aodiv@dividend:
   316                           	callstack 0
   317  000001                     ___aomod@dividend:
   318                           	callstack 0
   319                           
   320                           ; 8 bytes @ 0x0
   321  000001                     	ds	1
   322  000002                     ??_Irrigation_Management:
   323  000002                     DHT11_ReadData@data:
   324                           	callstack 0
   325  000002                     USART_SendString@out:
   326                           	callstack 0
   327                           
   328                           ; 2 bytes @ 0x1
   329  000002                     	ds	1
   330  000003                     MSdelay@i:
   331                           	callstack 0
   332  000003                     memset@c:
   333                           	callstack 0
   334  000003                     fputc@fp:
   335                           	callstack 0
   336  000003                     strlen@a:
   337                           	callstack 0
   338                           
   339                           ; 2 bytes @ 0x2
   340  000003                     	ds	1
   341  000004                     Irrigation_Management@RH:
   342                           	callstack 0
   343                           
   344                           ; 1 bytes @ 0x3
   345  000004                     	ds	1
   346  000005                     ??_fputc:
   347  000005                     ??___fltol:
   348  000005                     ??___xxtofl:
   349  000005                     MSdelay@j:
   350                           	callstack 0
   351  000005                     memset@n:
   352                           	callstack 0
   353  000005                     strcpy@dest:
   354                           	callstack 0
   355                           
   356                           ; 2 bytes @ 0x4
   357  000005                     	ds	2
   358  000007                     ??_memset:
   359  000007                     LCD_Command@cmd:
   360                           	callstack 0
   361  000007                     LCD_Char@char_data:
   362                           	callstack 0
   363  000007                     strcpy@src:
   364                           	callstack 0
   365                           
   366                           ; 2 bytes @ 0x6
   367  000007                     	ds	1
   368  000008                     LCD_String@str:
   369                           	callstack 0
   370                           
   371                           ; 2 bytes @ 0x7
   372  000008                     	ds	1
   373  000009                     ??_strcpy:
   374  000009                     ___fltol@sign1:
   375                           	callstack 0
   376  000009                     ___xxtofl@sign:
   377                           	callstack 0
   378  000009                     memset@k:
   379                           	callstack 0
   380  000009                     ___aodiv@divisor:
   381                           	callstack 0
   382  000009                     ___aomod@divisor:
   383                           	callstack 0
   384                           
   385                           ; 8 bytes @ 0x8
   386  000009                     	ds	1
   387  00000A                     LCD_String_xy@pos:
   388                           	callstack 0
   389  00000A                     ___fltol@exp1:
   390                           	callstack 0
   391  00000A                     ___xxtofl@exp:
   392                           	callstack 0
   393  00000A                     fputs@s:
   394                           	callstack 0
   395                           
   396                           ; 2 bytes @ 0x9
   397  00000A                     	ds	1
   398  00000B                     LCD_String_xy@str:
   399                           	callstack 0
   400  00000B                     memset@s:
   401                           	callstack 0
   402  00000B                     strcpy@s:
   403                           	callstack 0
   404  00000B                     ___xxtofl@arg:
   405                           	callstack 0
   406                           
   407                           ; 4 bytes @ 0xA
   408  00000B                     	ds	1
   409  00000C                     fputs@fp:
   410                           	callstack 0
   411                           
   412                           ; 2 bytes @ 0xB
   413  00000C                     	ds	1
   414  00000D                     LCD_String_xy@row:
   415                           	callstack 0
   416  00000D                     strcpy@d:
   417                           	callstack 0
   418                           
   419                           ; 2 bytes @ 0xC
   420  00000D                     	ds	1
   421  00000E                     fputs@c:
   422                           	callstack 0
   423                           
   424                           ; 1 bytes @ 0xD
   425  00000E                     	ds	1
   426  00000F                     ?___fldiv:
   427                           	callstack 0
   428  00000F                     fputs@i:
   429                           	callstack 0
   430  00000F                     strcat@dest:
   431                           	callstack 0
   432  00000F                     ___fldiv@b:
   433                           	callstack 0
   434                           
   435                           ; 4 bytes @ 0xE
   436  00000F                     	ds	2
   437  000011                     ?_pad:
   438                           	callstack 0
   439  000011                     ___aodiv@counter:
   440                           	callstack 0
   441  000011                     ___aomod@counter:
   442                           	callstack 0
   443  000011                     pad@fp:
   444                           	callstack 0
   445  000011                     strcat@src:
   446                           	callstack 0
   447                           
   448                           ; 2 bytes @ 0x10
   449  000011                     	ds	1
   450  000012                     ___aodiv@sign:
   451                           	callstack 0
   452  000012                     ___aomod@sign:
   453                           	callstack 0
   454                           
   455                           ; 1 bytes @ 0x11
   456  000012                     	ds	1
   457  000013                     ?_abs:
   458                           	callstack 0
   459  000013                     pad@buf:
   460                           	callstack 0
   461  000013                     abs@a:
   462                           	callstack 0
   463  000013                     ___fldiv@a:
   464                           	callstack 0
   465  000013                     ___aodiv@quotient:
   466                           	callstack 0
   467                           
   468                           ; 8 bytes @ 0x12
   469  000013                     	ds	2
   470  000015                     ??_abs:
   471  000015                     pad@p:
   472                           	callstack 0
   473                           
   474                           ; 2 bytes @ 0x14
   475  000015                     	ds	2
   476  000017                     ??___fldiv:
   477  000017                     ??_pad:
   478                           
   479                           ; 1 bytes @ 0x16
   480  000017                     	ds	1
   481  000018                     pad@i:
   482                           	callstack 0
   483                           
   484                           ; 2 bytes @ 0x17
   485  000018                     	ds	2
   486  00001A                     pad@w:
   487                           	callstack 0
   488                           
   489                           ; 2 bytes @ 0x19
   490  00001A                     	ds	1
   491  00001B                     ___fldiv@rem:
   492                           	callstack 0
   493                           
   494                           ; 4 bytes @ 0x1A
   495  00001B                     	ds	1
   496  00001C                     ?_dtoa:
   497                           	callstack 0
   498  00001C                     dtoa@fp:
   499                           	callstack 0
   500                           
   501                           ; 2 bytes @ 0x1B
   502  00001C                     	ds	2
   503  00001E                     dtoa@d:
   504                           	callstack 0
   505                           
   506                           ; 8 bytes @ 0x1D
   507  00001E                     	ds	1
   508  00001F                     ___fldiv@sign:
   509                           	callstack 0
   510                           
   511                           ; 1 bytes @ 0x1E
   512  00001F                     	ds	1
   513  000020                     ___fldiv@new_exp:
   514                           	callstack 0
   515                           
   516                           ; 2 bytes @ 0x1F
   517  000020                     	ds	2
   518  000022                     ___fldiv@grs:
   519                           	callstack 0
   520                           
   521                           ; 4 bytes @ 0x21
   522  000022                     	ds	4
   523  000026                     ??_dtoa:
   524  000026                     ___fldiv@bexp:
   525                           	callstack 0
   526                           
   527                           ; 1 bytes @ 0x25
   528  000026                     	ds	1
   529  000027                     ___fldiv@aexp:
   530                           	callstack 0
   531                           
   532                           ; 1 bytes @ 0x26
   533  000027                     	ds	1
   534  000028                     ?___fladd:
   535                           	callstack 0
   536  000028                     ___fladd@b:
   537                           	callstack 0
   538                           
   539                           ; 4 bytes @ 0x27
   540  000028                     	ds	4
   541  00002C                     ___fladd@a:
   542                           	callstack 0
   543                           
   544                           ; 4 bytes @ 0x2B
   545  00002C                     	ds	2
   546  00002E                     _dtoa$1125:
   547                           	callstack 0
   548                           
   549                           ; 2 bytes @ 0x2D
   550  00002E                     	ds	2
   551  000030                     ??___fladd:
   552  000030                     dtoa@p:
   553                           	callstack 0
   554                           
   555                           ; 2 bytes @ 0x2F
   556  000030                     	ds	2
   557  000032                     dtoa@w:
   558                           	callstack 0
   559                           
   560                           ; 2 bytes @ 0x31
   561  000032                     	ds	2
   562  000034                     ___fladd@signs:
   563                           	callstack 0
   564  000034                     dtoa@s:
   565                           	callstack 0
   566                           
   567                           ; 2 bytes @ 0x33
   568  000034                     	ds	1
   569  000035                     ___fladd@aexp:
   570                           	callstack 0
   571                           
   572                           ; 1 bytes @ 0x34
   573  000035                     	ds	1
   574  000036                     ___fladd@bexp:
   575                           	callstack 0
   576  000036                     dtoa@n:
   577                           	callstack 0
   578                           
   579                           ; 8 bytes @ 0x35
   580  000036                     	ds	1
   581  000037                     ___fladd@grs:
   582                           	callstack 0
   583                           
   584                           ; 1 bytes @ 0x36
   585  000037                     	ds	1
   586  000038                     USART_Init@baud_rate:
   587                           	callstack 0
   588                           
   589                           ; 4 bytes @ 0x37
   590  000038                     	ds	4
   591  00003C                     USART_Init@temp:
   592                           	callstack 0
   593                           
   594                           ; 4 bytes @ 0x3B
   595  00003C                     	ds	2
   596  00003E                     dtoa@i:
   597                           	callstack 0
   598                           
   599                           ; 2 bytes @ 0x3D
   600  00003E                     	ds	2
   601  000040                     ?_vfpfcnvrt:
   602                           	callstack 0
   603  000040                     vfpfcnvrt@fp:
   604                           	callstack 0
   605                           
   606                           ; 2 bytes @ 0x3F
   607  000040                     	ds	2
   608  000042                     vfpfcnvrt@fmt:
   609                           	callstack 0
   610                           
   611                           ; 2 bytes @ 0x41
   612  000042                     	ds	2
   613  000044                     vfpfcnvrt@ap:
   614                           	callstack 0
   615                           
   616                           ; 2 bytes @ 0x43
   617  000044                     	ds	2
   618  000046                     ??_vfpfcnvrt:
   619                           
   620                           ; 1 bytes @ 0x45
   621  000046                     	ds	2
   622  000048                     vfpfcnvrt@ll:
   623                           	callstack 0
   624                           
   625                           ; 8 bytes @ 0x47
   626  000048                     	ds	8
   627  000050                     ?_vfprintf:
   628                           	callstack 0
   629  000050                     vfprintf@fp:
   630                           	callstack 0
   631                           
   632                           ; 2 bytes @ 0x4F
   633  000050                     	ds	2
   634  000052                     vfprintf@fmt:
   635                           	callstack 0
   636                           
   637                           ; 2 bytes @ 0x51
   638  000052                     	ds	2
   639  000054                     vfprintf@ap:
   640                           	callstack 0
   641                           
   642                           ; 2 bytes @ 0x53
   643  000054                     	ds	2
   644  000056                     vfprintf@cfmt:
   645                           	callstack 0
   646                           
   647                           ; 2 bytes @ 0x55
   648  000056                     	ds	2
   649  000058                     ?_sprintf:
   650                           	callstack 0
   651  000058                     sprintf@s:
   652                           	callstack 0
   653                           
   654                           ; 2 bytes @ 0x57
   655  000058                     	ds	2
   656  00005A                     sprintf@fmt:
   657                           	callstack 0
   658                           
   659                           ; 2 bytes @ 0x59
   660  00005A                     	ds	4
   661  00005E                     ??_main:
   662                           
   663                           ; 1 bytes @ 0x5D
   664  00005E                     	ds	2
   665                           
   666 ;;
   667 ;;Main: autosize = 0, tempsize = 2, incstack = 0, save=0
   668 ;;
   669 ;; *************** function _main *****************
   670 ;; Defined at:
   671 ;;		line 18 in file "GPS_Source_File.c"
   672 ;; Parameters:    Size  Location     Type
   673 ;;		None
   674 ;; Auto vars:     Size  Location     Type
   675 ;;  value          10   11[BANK0 ] unsigned char [10]
   676 ;;  T_Integral      1   24[BANK0 ] unsigned char 
   677 ;;  RH_Integral     1   23[BANK0 ] unsigned char 
   678 ;;  T_Decimal       1   22[BANK0 ] unsigned char 
   679 ;;  RH_Decimal      1   21[BANK0 ] unsigned char 
   680 ;;  Checksum        1    0        unsigned char 
   681 ;; Return value:  Size  Location     Type
   682 ;;                  1    wreg      void 
   683 ;; Registers used:
   684 ;;		wreg, fsr0l, fsr0h, fsr1l, fsr1h, fsr2l, fsr2h, status,2, status,0, tblptrl, tblptrh, tblptru, cstack
   685 ;; Tracked objects:
   686 ;;		On entry : 0/0
   687 ;;		On exit  : 0/0
   688 ;;		Unchanged: 0/0
   689 ;; Data sizes:     COMRAM   BANK0   BANK1   BANK2   BANK3   BANK4   BANK5   BANK6   BANK7
   690 ;;      Params:         0       0       0       0       0       0       0       0       0
   691 ;;      Locals:         0      15       0       0       0       0       0       0       0
   692 ;;      Temps:          2       0       0       0       0       0       0       0       0
   693 ;;      Totals:         2      15       0       0       0       0       0       0       0
   694 ;;Total ram usage:       17 bytes
   695 ;; Hardware stack levels required when called:    8
   696 ;; This function calls:
   697 ;;		_ADC_Init
   698 ;;		_DHT11_CheckResponse
   699 ;;		_DHT11_ReadData
   700 ;;		_DHT11_Start
   701 ;;		_Irrigation_Management
   702 ;;		_LCD_Char
   703 ;;		_LCD_Init
   704 ;;		_LCD_String
   705 ;;		_LCD_String_xy
   706 ;;		_USART_Init
   707 ;;		_USART_SendString
   708 ;;		_memset
   709 ;;		_sprintf
   710 ;;		_strcat
   711 ;;		_strcpy
   712 ;; This function is called by:
   713 ;;		Startup code after reset
   714 ;; This function uses a non-reentrant model
   715 ;;
   716                           
   717                           	psect	text0
   718  00136C                     __ptext0:
   719                           	callstack 0
   720  00136C                     _main:
   721                           	callstack 23
   722  00136C                     
   723                           ;GPS_Source_File.c: 19:     char value[10];;GPS_Source_File.c: 20:     char RH_Decimal, 
      +                          RH_Integral, T_Decimal, T_Integral, Checksum;;GPS_Source_File.c: 22:     OSCCON = 0xD2;
   724  00136C  0ED2               	movlw	210
   725  00136E  6ED3               	movwf	211,c	;volatile
   726  001370                     
   727                           ;GPS_Source_File.c: 23:     TRISBbits.RB2 = 0;
   728  001370  9493               	bcf	147,2,c	;volatile
   729  001372                     
   730                           ;GPS_Source_File.c: 24:     TRISBbits.RB3 = 0;
   731  001372  9693               	bcf	147,3,c	;volatile
   732  001374                     
   733                           ;GPS_Source_File.c: 26:     LCD_Init();
   734  001374  EC48  F012         	call	_LCD_Init	;wreg free
   735  001378                     
   736                           ;GPS_Source_File.c: 27:     INTCONbits.GIE=1;
   737  001378  8EF2               	bsf	242,7,c	;volatile
   738  00137A                     
   739                           ;GPS_Source_File.c: 28:     INTCONbits.PEIE=1;
   740  00137A  8CF2               	bsf	242,6,c	;volatile
   741  00137C                     
   742                           ;GPS_Source_File.c: 29:     PIE1bits.RCIE=1;
   743  00137C  8A9D               	bsf	157,5,c	;volatile
   744  00137E                     
   745                           ;GPS_Source_File.c: 30:     USART_Init(9600);
   746  00137E  0E80               	movlw	128
   747  001380  6E38               	movwf	USART_Init@baud_rate^0,c
   748  001382  0E25               	movlw	37
   749  001384  6E39               	movwf	(USART_Init@baud_rate+1)^0,c
   750  001386  0E00               	movlw	0
   751  001388  6E3A               	movwf	(USART_Init@baud_rate+2)^0,c
   752  00138A  0E00               	movlw	0
   753  00138C  6E3B               	movwf	(USART_Init@baud_rate+3)^0,c
   754  00138E  EC44  F010         	call	_USART_Init	;wreg free
   755  001392                     
   756                           ;GPS_Source_File.c: 31:     ADC_Init();
   757  001392  EC0E  F013         	call	_ADC_Init	;wreg free
   758  001396                     
   759                           ;GPS_Source_File.c: 32:     _delay((unsigned long)((10)*(8000000/4000.0)));
   760  001396  0E1A               	movlw	26
   761  001398  6E5E               	movwf	??_main^0,c
   762  00139A  0EF8               	movlw	248
   763  00139C                     u3147:
   764  00139C  2EE8               	decfsz	wreg,f,c
   765  00139E  D7FE               	bra	u3147
   766  0013A0  2E5E               	decfsz	??_main^0,f,c
   767  0013A2  D7FC               	bra	u3147
   768  0013A4  D000               	nop2	
   769  0013A6                     l53:
   770                           
   771                           ;GPS_Source_File.c: 35:     {;GPS_Source_File.c: 36:         DHT11_Start();
   772  0013A6  ECD5  F012         	call	_DHT11_Start	;wreg free
   773  0013AA                     
   774                           ;GPS_Source_File.c: 37:         DHT11_CheckResponse();
   775  0013AA  EC9B  F012         	call	_DHT11_CheckResponse	;wreg free
   776  0013AE                     
   777                           ;GPS_Source_File.c: 40:         RH_Integral = DHT11_ReadData();
   778  0013AE  EC63  F011         	call	_DHT11_ReadData	;wreg free
   779  0013B2  0100               	movlb	0	; () banked
   780  0013B4  6FD1               	movwf	main@RH_Integral& (0+255),b
   781  0013B6                     
   782                           ; BSR set to: 0
   783                           ;GPS_Source_File.c: 41:         RH_Decimal = DHT11_ReadData();
   784  0013B6  EC63  F011         	call	_DHT11_ReadData	;wreg free
   785  0013BA  0100               	movlb	0	; () banked
   786  0013BC  6FCF               	movwf	main@RH_Decimal& (0+255),b
   787  0013BE                     
   788                           ; BSR set to: 0
   789                           ;GPS_Source_File.c: 42:         T_Integral = DHT11_ReadData();
   790  0013BE  EC63  F011         	call	_DHT11_ReadData	;wreg free
   791  0013C2  0100               	movlb	0	; () banked
   792  0013C4  6FD2               	movwf	main@T_Integral& (0+255),b
   793  0013C6                     
   794                           ; BSR set to: 0
   795                           ;GPS_Source_File.c: 43:         T_Decimal = DHT11_ReadData();
   796  0013C6  EC63  F011         	call	_DHT11_ReadData	;wreg free
   797  0013CA  0100               	movlb	0	; () banked
   798  0013CC  6FD0               	movwf	main@T_Decimal& (0+255),b
   799  0013CE                     
   800                           ; BSR set to: 0
   801  0013CE  EC63  F011         	call	_DHT11_ReadData	;wreg free
   802  0013D2                     
   803                           ;GPS_Source_File.c: 46:         LCD_String_xy(1,0,"DATE: ");
   804  0013D2  0E00               	movlw	0
   805  0013D4  6E0A               	movwf	LCD_String_xy@pos^0,c
   806  0013D6  0E13               	movlw	low STR_1
   807  0013D8  6E0B               	movwf	LCD_String_xy@str^0,c
   808  0013DA  0E08               	movlw	high STR_1
   809  0013DC  6E0C               	movwf	(LCD_String_xy@str+1)^0,c
   810  0013DE  0E01               	movlw	1
   811  0013E0  EC8E  F010         	call	_LCD_String_xy
   812  0013E4                     
   813                           ;GPS_Source_File.c: 48:         LCD_String_xy(2,0,"TIME: ");
   814  0013E4  0E00               	movlw	0
   815  0013E6  6E0A               	movwf	LCD_String_xy@pos^0,c
   816  0013E8  0E0C               	movlw	low STR_2
   817  0013EA  6E0B               	movwf	LCD_String_xy@str^0,c
   818  0013EC  0E08               	movlw	high STR_2
   819  0013EE  6E0C               	movwf	(LCD_String_xy@str+1)^0,c
   820  0013F0  0E02               	movlw	2
   821  0013F2  EC8E  F010         	call	_LCD_String_xy
   822  0013F6                     
   823                           ;GPS_Source_File.c: 51:         memset(value,0,10);
   824  0013F6  0EC5               	movlw	low main@value
   825  0013F8  6E01               	movwf	memset@dest^0,c
   826  0013FA  0E00               	movlw	high main@value
   827  0013FC  6E02               	movwf	(memset@dest+1)^0,c
   828  0013FE  0E00               	movlw	0
   829  001400  6E04               	movwf	(memset@c+1)^0,c
   830  001402  0E00               	movlw	0
   831  001404  6E03               	movwf	memset@c^0,c
   832  001406  0E00               	movlw	0
   833  001408  6E06               	movwf	(memset@n+1)^0,c
   834  00140A  0E0A               	movlw	10
   835  00140C  6E05               	movwf	memset@n^0,c
   836  00140E  EC8C  F00D         	call	_memset	;wreg free
   837  001412                     
   838                           ;GPS_Source_File.c: 52:         sprintf(value,"%d",T_Integral);
   839  001412  0EC5               	movlw	low main@value
   840  001414  6E58               	movwf	sprintf@s^0,c
   841  001416  0E00               	movlw	high main@value
   842  001418  6E59               	movwf	(sprintf@s+1)^0,c
   843  00141A  0E27               	movlw	low (STR_5+1)
   844  00141C  6E5A               	movwf	sprintf@fmt^0,c
   845  00141E  0E08               	movlw	high (STR_5+1)
   846  001420  6E5B               	movwf	(sprintf@fmt+1)^0,c
   847  001422  C0D2  F05C         	movff	main@T_Integral,?_sprintf+4
   848  001426  6A5D               	clrf	(?_sprintf+5)^0,c
   849  001428  EC91  F011         	call	_sprintf	;wreg free
   850  00142C                     
   851                           ;GPS_Source_File.c: 53:         LCD_String_xy(3,0,"TEMP: ");
   852  00142C  0E00               	movlw	0
   853  00142E  6E0A               	movwf	LCD_String_xy@pos^0,c
   854  001430  0E1A               	movlw	low STR_4
   855  001432  6E0B               	movwf	LCD_String_xy@str^0,c
   856  001434  0E08               	movlw	high STR_4
   857  001436  6E0C               	movwf	(LCD_String_xy@str+1)^0,c
   858  001438  0E03               	movlw	3
   859  00143A  EC8E  F010         	call	_LCD_String_xy
   860  00143E                     
   861                           ;GPS_Source_File.c: 54:         LCD_String(value);
   862  00143E  0EC5               	movlw	low main@value
   863  001440  6E08               	movwf	LCD_String@str^0,c
   864  001442  0E00               	movlw	high main@value
   865  001444  6E09               	movwf	(LCD_String@str+1)^0,c
   866  001446  EC06  F011         	call	_LCD_String	;wreg free
   867  00144A                     
   868                           ;GPS_Source_File.c: 55:         sprintf(value,".%d",T_Decimal);
   869  00144A  0EC5               	movlw	low main@value
   870  00144C  6E58               	movwf	sprintf@s^0,c
   871  00144E  0E00               	movlw	high main@value
   872  001450  6E59               	movwf	(sprintf@s+1)^0,c
   873  001452  0E26               	movlw	low STR_5
   874  001454  6E5A               	movwf	sprintf@fmt^0,c
   875  001456  0E08               	movlw	high STR_5
   876  001458  6E5B               	movwf	(sprintf@fmt+1)^0,c
   877  00145A  C0D0  F05C         	movff	main@T_Decimal,?_sprintf+4
   878  00145E  6A5D               	clrf	(?_sprintf+5)^0,c
   879  001460  EC91  F011         	call	_sprintf	;wreg free
   880  001464                     
   881                           ;GPS_Source_File.c: 56:         LCD_String(value);
   882  001464  0EC5               	movlw	low main@value
   883  001466  6E08               	movwf	LCD_String@str^0,c
   884  001468  0E00               	movlw	high main@value
   885  00146A  6E09               	movwf	(LCD_String@str+1)^0,c
   886  00146C  EC06  F011         	call	_LCD_String	;wreg free
   887  001470                     
   888                           ;GPS_Source_File.c: 57:         LCD_Char(0xdf);
   889  001470  0EDF               	movlw	223
   890  001472  ECE5  F012         	call	_LCD_Char
   891  001476                     
   892                           ;GPS_Source_File.c: 58:         LCD_Char('C');
   893  001476  0E43               	movlw	67
   894  001478  ECE5  F012         	call	_LCD_Char
   895  00147C                     
   896                           ;GPS_Source_File.c: 61:         memset(value,0,10);
   897  00147C  0EC5               	movlw	low main@value
   898  00147E  6E01               	movwf	memset@dest^0,c
   899  001480  0E00               	movlw	high main@value
   900  001482  6E02               	movwf	(memset@dest+1)^0,c
   901  001484  0E00               	movlw	0
   902  001486  6E04               	movwf	(memset@c+1)^0,c
   903  001488  0E00               	movlw	0
   904  00148A  6E03               	movwf	memset@c^0,c
   905  00148C  0E00               	movlw	0
   906  00148E  6E06               	movwf	(memset@n+1)^0,c
   907  001490  0E0A               	movlw	10
   908  001492  6E05               	movwf	memset@n^0,c
   909  001494  EC8C  F00D         	call	_memset	;wreg free
   910  001498                     
   911                           ;GPS_Source_File.c: 62:         sprintf(value,"%d",RH_Integral);
   912  001498  0EC5               	movlw	low main@value
   913  00149A  6E58               	movwf	sprintf@s^0,c
   914  00149C  0E00               	movlw	high main@value
   915  00149E  6E59               	movwf	(sprintf@s+1)^0,c
   916  0014A0  0E27               	movlw	low (STR_5+1)
   917  0014A2  6E5A               	movwf	sprintf@fmt^0,c
   918  0014A4  0E08               	movlw	high (STR_5+1)
   919  0014A6  6E5B               	movwf	(sprintf@fmt+1)^0,c
   920  0014A8  C0D1  F05C         	movff	main@RH_Integral,?_sprintf+4
   921  0014AC  6A5D               	clrf	(?_sprintf+5)^0,c
   922  0014AE  EC91  F011         	call	_sprintf	;wreg free
   923  0014B2                     
   924                           ;GPS_Source_File.c: 63:         LCD_String_xy(4,0,"HUMEDITY: ");
   925  0014B2  0E00               	movlw	0
   926  0014B4  6E0A               	movwf	LCD_String_xy@pos^0,c
   927  0014B6  0E01               	movlw	low STR_7
   928  0014B8  6E0B               	movwf	LCD_String_xy@str^0,c
   929  0014BA  0E08               	movlw	high STR_7
   930  0014BC  6E0C               	movwf	(LCD_String_xy@str+1)^0,c
   931  0014BE  0E04               	movlw	4
   932  0014C0  EC8E  F010         	call	_LCD_String_xy
   933  0014C4                     
   934                           ;GPS_Source_File.c: 64:         LCD_String(value);
   935  0014C4  0EC5               	movlw	low main@value
   936  0014C6  6E08               	movwf	LCD_String@str^0,c
   937  0014C8  0E00               	movlw	high main@value
   938  0014CA  6E09               	movwf	(LCD_String@str+1)^0,c
   939  0014CC  EC06  F011         	call	_LCD_String	;wreg free
   940  0014D0                     
   941                           ;GPS_Source_File.c: 65:         sprintf(value,".%d ",RH_Decimal);
   942  0014D0  0EC5               	movlw	low main@value
   943  0014D2  6E58               	movwf	sprintf@s^0,c
   944  0014D4  0E00               	movlw	high main@value
   945  0014D6  6E59               	movwf	(sprintf@s+1)^0,c
   946  0014D8  0E21               	movlw	low STR_8
   947  0014DA  6E5A               	movwf	sprintf@fmt^0,c
   948  0014DC  0E08               	movlw	high STR_8
   949  0014DE  6E5B               	movwf	(sprintf@fmt+1)^0,c
   950  0014E0  C0CF  F05C         	movff	main@RH_Decimal,?_sprintf+4
   951  0014E4  6A5D               	clrf	(?_sprintf+5)^0,c
   952  0014E6  EC91  F011         	call	_sprintf	;wreg free
   953  0014EA                     
   954                           ;GPS_Source_File.c: 66:         LCD_String(value);
   955  0014EA  0EC5               	movlw	low main@value
   956  0014EC  6E08               	movwf	LCD_String@str^0,c
   957  0014EE  0E00               	movlw	high main@value
   958  0014F0  6E09               	movwf	(LCD_String@str+1)^0,c
   959  0014F2  EC06  F011         	call	_LCD_String	;wreg free
   960  0014F6                     
   961                           ;GPS_Source_File.c: 67:         LCD_Char('%');
   962  0014F6  0E25               	movlw	37
   963  0014F8  ECE5  F012         	call	_LCD_Char
   964  0014FC                     
   965                           ;GPS_Source_File.c: 69:         Irrigation_Management(RH_Integral, T_Integral);
   966  0014FC  C0D2  F001         	movff	main@T_Integral,Irrigation_Management@T
   967  001500  0100               	movlb	0	; () banked
   968  001502  51D1               	movf	main@RH_Integral& (0+255),w,b
   969  001504  ECBA  F011         	call	_Irrigation_Management
   970  001508                     
   971                           ;GPS_Source_File.c: 71:         sprintf(value,"%d",RH_Integral);
   972  001508  0EC5               	movlw	low main@value
   973  00150A  6E58               	movwf	sprintf@s^0,c
   974  00150C  0E00               	movlw	high main@value
   975  00150E  6E59               	movwf	(sprintf@s+1)^0,c
   976  001510  0E27               	movlw	low (STR_5+1)
   977  001512  6E5A               	movwf	sprintf@fmt^0,c
   978  001514  0E08               	movlw	high (STR_5+1)
   979  001516  6E5B               	movwf	(sprintf@fmt+1)^0,c
   980  001518  C0D1  F05C         	movff	main@RH_Integral,?_sprintf+4
   981  00151C  6A5D               	clrf	(?_sprintf+5)^0,c
   982  00151E  EC91  F011         	call	_sprintf	;wreg free
   983  001522                     
   984                           ;GPS_Source_File.c: 72:         strcpy(val_aux, value);
   985  001522  0E68               	movlw	low _val_aux
   986  001524  6E05               	movwf	strcpy@dest^0,c
   987  001526  0E00               	movlw	high _val_aux
   988  001528  6E06               	movwf	(strcpy@dest+1)^0,c
   989  00152A  0EC5               	movlw	low main@value
   990  00152C  6E07               	movwf	strcpy@src^0,c
   991  00152E  0E00               	movlw	high main@value
   992  001530  6E08               	movwf	(strcpy@src+1)^0,c
   993  001532  EC35  F011         	call	_strcpy	;wreg free
   994  001536                     
   995                           ;GPS_Source_File.c: 73:         sprintf(value,".%d",RH_Decimal);
   996  001536  0EC5               	movlw	low main@value
   997  001538  6E58               	movwf	sprintf@s^0,c
   998  00153A  0E00               	movlw	high main@value
   999  00153C  6E59               	movwf	(sprintf@s+1)^0,c
  1000  00153E  0E26               	movlw	low STR_5
  1001  001540  6E5A               	movwf	sprintf@fmt^0,c
  1002  001542  0E08               	movlw	high STR_5
  1003  001544  6E5B               	movwf	(sprintf@fmt+1)^0,c
  1004  001546  C0CF  F05C         	movff	main@RH_Decimal,?_sprintf+4
  1005  00154A  6A5D               	clrf	(?_sprintf+5)^0,c
  1006  00154C  EC91  F011         	call	_sprintf	;wreg free
  1007  001550                     
  1008                           ;GPS_Source_File.c: 74:         strcat(val_aux, value);
  1009  001550  0E68               	movlw	low _val_aux
  1010  001552  6E0F               	movwf	strcat@dest^0,c
  1011  001554  0E00               	movlw	high _val_aux
  1012  001556  6E10               	movwf	(strcat@dest+1)^0,c
  1013  001558  0EC5               	movlw	low main@value
  1014  00155A  6E11               	movwf	strcat@src^0,c
  1015  00155C  0E00               	movlw	high main@value
  1016  00155E  6E12               	movwf	(strcat@src+1)^0,c
  1017  001560  ECB1  F012         	call	_strcat	;wreg free
  1018  001564                     
  1019                           ;GPS_Source_File.c: 75:         _delay((unsigned long)((500)*(8000000/4000.0)));
  1020  001564  0E06               	movlw	6
  1021  001566  6E5F               	movwf	(??_main+1)^0,c
  1022  001568  0E13               	movlw	19
  1023  00156A  6E5E               	movwf	??_main^0,c
  1024  00156C  0EAE               	movlw	174
  1025  00156E                     u3157:
  1026  00156E  2EE8               	decfsz	wreg,f,c
  1027  001570  D7FE               	bra	u3157
  1028  001572  2E5E               	decfsz	??_main^0,f,c
  1029  001574  D7FC               	bra	u3157
  1030  001576  2E5F               	decfsz	(??_main+1)^0,f,c
  1031  001578  D7FA               	bra	u3157
  1032  00157A                     
  1033                           ;GPS_Source_File.c: 77:         strcat(val_aux, ",");
  1034  00157A  0E68               	movlw	low _val_aux
  1035  00157C  6E0F               	movwf	strcat@dest^0,c
  1036  00157E  0E00               	movlw	high _val_aux
  1037  001580  6E10               	movwf	(strcat@dest+1)^0,c
  1038  001582  0E2D               	movlw	low STR_11
  1039  001584  6E11               	movwf	strcat@src^0,c
  1040  001586  0E08               	movlw	high STR_11
  1041  001588  6E12               	movwf	(strcat@src+1)^0,c
  1042  00158A  ECB1  F012         	call	_strcat	;wreg free
  1043  00158E                     
  1044                           ;GPS_Source_File.c: 78:         sprintf(value,"%d",T_Integral);
  1045  00158E  0EC5               	movlw	low main@value
  1046  001590  6E58               	movwf	sprintf@s^0,c
  1047  001592  0E00               	movlw	high main@value
  1048  001594  6E59               	movwf	(sprintf@s+1)^0,c
  1049  001596  0E27               	movlw	low (STR_5+1)
  1050  001598  6E5A               	movwf	sprintf@fmt^0,c
  1051  00159A  0E08               	movlw	high (STR_5+1)
  1052  00159C  6E5B               	movwf	(sprintf@fmt+1)^0,c
  1053  00159E  C0D2  F05C         	movff	main@T_Integral,?_sprintf+4
  1054  0015A2  6A5D               	clrf	(?_sprintf+5)^0,c
  1055  0015A4  EC91  F011         	call	_sprintf	;wreg free
  1056  0015A8                     
  1057                           ;GPS_Source_File.c: 79:         strcat(val_aux, value);
  1058  0015A8  0E68               	movlw	low _val_aux
  1059  0015AA  6E0F               	movwf	strcat@dest^0,c
  1060  0015AC  0E00               	movlw	high _val_aux
  1061  0015AE  6E10               	movwf	(strcat@dest+1)^0,c
  1062  0015B0  0EC5               	movlw	low main@value
  1063  0015B2  6E11               	movwf	strcat@src^0,c
  1064  0015B4  0E00               	movlw	high main@value
  1065  0015B6  6E12               	movwf	(strcat@src+1)^0,c
  1066  0015B8  ECB1  F012         	call	_strcat	;wreg free
  1067  0015BC                     
  1068                           ;GPS_Source_File.c: 80:         sprintf(value,".%d",T_Decimal);
  1069  0015BC  0EC5               	movlw	low main@value
  1070  0015BE  6E58               	movwf	sprintf@s^0,c
  1071  0015C0  0E00               	movlw	high main@value
  1072  0015C2  6E59               	movwf	(sprintf@s+1)^0,c
  1073  0015C4  0E26               	movlw	low STR_5
  1074  0015C6  6E5A               	movwf	sprintf@fmt^0,c
  1075  0015C8  0E08               	movlw	high STR_5
  1076  0015CA  6E5B               	movwf	(sprintf@fmt+1)^0,c
  1077  0015CC  C0D0  F05C         	movff	main@T_Decimal,?_sprintf+4
  1078  0015D0  6A5D               	clrf	(?_sprintf+5)^0,c
  1079  0015D2  EC91  F011         	call	_sprintf	;wreg free
  1080  0015D6                     
  1081                           ;GPS_Source_File.c: 81:         strcat(val_aux, value);
  1082  0015D6  0E68               	movlw	low _val_aux
  1083  0015D8  6E0F               	movwf	strcat@dest^0,c
  1084  0015DA  0E00               	movlw	high _val_aux
  1085  0015DC  6E10               	movwf	(strcat@dest+1)^0,c
  1086  0015DE  0EC5               	movlw	low main@value
  1087  0015E0  6E11               	movwf	strcat@src^0,c
  1088  0015E2  0E00               	movlw	high main@value
  1089  0015E4  6E12               	movwf	(strcat@src+1)^0,c
  1090  0015E6  ECB1  F012         	call	_strcat	;wreg free
  1091  0015EA                     
  1092                           ;GPS_Source_File.c: 83:         strcat(val_aux, "\r\n");
  1093  0015EA  0E68               	movlw	low _val_aux
  1094  0015EC  6E0F               	movwf	strcat@dest^0,c
  1095  0015EE  0E00               	movlw	high _val_aux
  1096  0015F0  6E10               	movwf	(strcat@dest+1)^0,c
  1097  0015F2  0E2A               	movlw	low STR_14
  1098  0015F4  6E11               	movwf	strcat@src^0,c
  1099  0015F6  0E08               	movlw	high STR_14
  1100  0015F8  6E12               	movwf	(strcat@src+1)^0,c
  1101  0015FA  ECB1  F012         	call	_strcat	;wreg free
  1102  0015FE                     
  1103                           ;GPS_Source_File.c: 84:         USART_SendString(val_aux);
  1104  0015FE  0E68               	movlw	low _val_aux
  1105  001600  6E02               	movwf	USART_SendString@out^0,c
  1106  001602  0E00               	movlw	high _val_aux
  1107  001604  6E03               	movwf	(USART_SendString@out+1)^0,c
  1108  001606  EC83  F012         	call	_USART_SendString	;wreg free
  1109  00160A                     
  1110                           ;GPS_Source_File.c: 86:         _delay((unsigned long)((500)*(8000000/4000.0)));
  1111  00160A  0E06               	movlw	6
  1112  00160C  6E5F               	movwf	(??_main+1)^0,c
  1113  00160E  0E13               	movlw	19
  1114  001610  6E5E               	movwf	??_main^0,c
  1115  001612  0EAE               	movlw	174
  1116  001614                     u3167:
  1117  001614  2EE8               	decfsz	wreg,f,c
  1118  001616  D7FE               	bra	u3167
  1119  001618  2E5E               	decfsz	??_main^0,f,c
  1120  00161A  D7FC               	bra	u3167
  1121  00161C  2E5F               	decfsz	(??_main+1)^0,f,c
  1122  00161E  D7FA               	bra	u3167
  1123  001620  EFD3  F009         	goto	l53
  1124  001624  EF00  F000         	goto	start
  1125  001628                     __end_of_main:
  1126                           	callstack 0
  1127                           
  1128 ;; *************** function _strcat *****************
  1129 ;; Defined at:
  1130 ;;		line 3 in file "C:\Program Files\Microchip\xc8\v2.31\pic\sources\c99\common\strcat.c"
  1131 ;; Parameters:    Size  Location     Type
  1132 ;;  dest            2   14[COMRAM] PTR unsigned char 
  1133 ;;		 -> val_aux(50), 
  1134 ;;  src             2   16[COMRAM] PTR const unsigned char 
  1135 ;;		 -> STR_14(3), STR_11(2), main@value(10), 
  1136 ;; Auto vars:     Size  Location     Type
  1137 ;;		None
  1138 ;; Return value:  Size  Location     Type
  1139 ;;                  2   14[COMRAM] PTR unsigned char 
  1140 ;; Registers used:
  1141 ;;		wreg, fsr0l, fsr0h, fsr2l, fsr2h, status,2, status,0, tblptrl, tblptrh, tblptru, cstack
  1142 ;; Tracked objects:
  1143 ;;		On entry : 0/0
  1144 ;;		On exit  : 0/0
  1145 ;;		Unchanged: 0/0
  1146 ;; Data sizes:     COMRAM   BANK0   BANK1   BANK2   BANK3   BANK4   BANK5   BANK6   BANK7
  1147 ;;      Params:         4       0       0       0       0       0       0       0       0
  1148 ;;      Locals:         0       0       0       0       0       0       0       0       0
  1149 ;;      Temps:          0       0       0       0       0       0       0       0       0
  1150 ;;      Totals:         4       0       0       0       0       0       0       0       0
  1151 ;;Total ram usage:        4 bytes
  1152 ;; Hardware stack levels used:    1
  1153 ;; Hardware stack levels required when called:    1
  1154 ;; This function calls:
  1155 ;;		_strcpy
  1156 ;;		_strlen
  1157 ;; This function is called by:
  1158 ;;		_main
  1159 ;; This function uses a non-reentrant model
  1160 ;;
  1161                           
  1162                           	psect	text1
  1163  002562                     __ptext1:
  1164                           	callstack 0
  1165  002562                     _strcat:
  1166                           	callstack 29
  1167  002562  C00F  F001         	movff	strcat@dest,strlen@s
  1168  002566  C010  F002         	movff	strcat@dest+1,strlen@s+1
  1169  00256A  EC68  F012         	call	_strlen	;wreg free
  1170  00256E  5001               	movf	?_strlen^0,w,c
  1171  002570  240F               	addwf	strcat@dest^0,w,c
  1172  002572  6E05               	movwf	strcpy@dest^0,c
  1173  002574  5002               	movf	(?_strlen+1)^0,w,c
  1174  002576  2010               	addwfc	(strcat@dest+1)^0,w,c
  1175  002578  6E06               	movwf	(strcpy@dest+1)^0,c
  1176  00257A  C011  F007         	movff	strcat@src,strcpy@src
  1177  00257E  C012  F008         	movff	strcat@src+1,strcpy@src+1
  1178  002582  EC35  F011         	call	_strcpy	;wreg free
  1179  002586  0012               	return		;funcret
  1180  002588                     __end_of_strcat:
  1181                           	callstack 0
  1182                           
  1183 ;; *************** function _strcpy *****************
  1184 ;; Defined at:
  1185 ;;		line 3 in file "C:\Program Files\Microchip\xc8\v2.31\pic\sources\c99\common\strcpy.c"
  1186 ;; Parameters:    Size  Location     Type
  1187 ;;  dest            2    4[COMRAM] PTR unsigned char 
  1188 ;;		 -> val_aux(50), 
  1189 ;;  src             2    6[COMRAM] PTR const unsigned char 
  1190 ;;		 -> STR_14(3), STR_11(2), main@value(10), 
  1191 ;; Auto vars:     Size  Location     Type
  1192 ;;  d               2   12[COMRAM] PTR unsigned char 
  1193 ;;		 -> val_aux(50), 
  1194 ;;  s               2   10[COMRAM] PTR const unsigned char 
  1195 ;;		 -> STR_14(3), STR_11(2), main@value(10), 
  1196 ;; Return value:  Size  Location     Type
  1197 ;;                  2    4[COMRAM] PTR unsigned char 
  1198 ;; Registers used:
  1199 ;;		wreg, fsr0l, fsr0h, fsr2l, fsr2h, status,2, status,0, tblptrl, tblptrh, tblptru
  1200 ;; Tracked objects:
  1201 ;;		On entry : 0/0
  1202 ;;		On exit  : 0/0
  1203 ;;		Unchanged: 0/0
  1204 ;; Data sizes:     COMRAM   BANK0   BANK1   BANK2   BANK3   BANK4   BANK5   BANK6   BANK7
  1205 ;;      Params:         4       0       0       0       0       0       0       0       0
  1206 ;;      Locals:         4       0       0       0       0       0       0       0       0
  1207 ;;      Temps:          2       0       0       0       0       0       0       0       0
  1208 ;;      Totals:        10       0       0       0       0       0       0       0       0
  1209 ;;Total ram usage:       10 bytes
  1210 ;; Hardware stack levels used:    1
  1211 ;; This function calls:
  1212 ;;		Nothing
  1213 ;; This function is called by:
  1214 ;;		_main
  1215 ;;		_strcat
  1216 ;; This function uses a non-reentrant model
  1217 ;;
  1218                           
  1219                           	psect	text2
  1220  00226A                     __ptext2:
  1221                           	callstack 0
  1222  00226A                     _strcpy:
  1223                           	callstack 30
  1224  00226A  C007  F00B         	movff	strcpy@src,strcpy@s
  1225  00226E  C008  F00C         	movff	strcpy@src+1,strcpy@s+1
  1226  002272  C005  F00D         	movff	strcpy@dest,strcpy@d
  1227  002276  C006  F00E         	movff	strcpy@dest+1,strcpy@d+1
  1228  00227A                     l2327:
  1229  00227A  500B               	movf	strcpy@s^0,w,c
  1230  00227C  6E09               	movwf	??_strcpy^0,c
  1231  00227E  500C               	movf	(strcpy@s+1)^0,w,c
  1232  002280  6E0A               	movwf	(??_strcpy+1)^0,c
  1233  002282  4A0B               	infsnz	strcpy@s^0,f,c
  1234  002284  2A0C               	incf	(strcpy@s+1)^0,f,c
  1235  002286  C009  FFF6         	movff	??_strcpy,tblptrl
  1236  00228A  C00A  FFF7         	movff	??_strcpy+1,tblptrh
  1237  00228E  6AF8               	clrf	tblptru,c
  1238  002290  C00D  FFD9         	movff	strcpy@d,fsr2l
  1239  002294  C00E  FFDA         	movff	strcpy@d+1,fsr2h
  1240  002298  4A0D               	infsnz	strcpy@d^0,f,c
  1241  00229A  2A0E               	incf	(strcpy@d+1)^0,f,c
  1242  00229C  0E07               	movlw	(high __ramtop+-1)
  1243  00229E  64F7               	cpfsgt	tblptrh,c
  1244  0022A0  D003               	bra	u2117
  1245  0022A2  0008               	tblrd		*
  1246  0022A4  50F5               	movf	tablat,w,c
  1247  0022A6  D005               	bra	u2110
  1248  0022A8                     u2117:
  1249  0022A8  CFF6 FFE9          	movff	tblptrl,fsr0l
  1250  0022AC  CFF7 FFEA          	movff	tblptrh,fsr0h
  1251  0022B0  50EF               	movf	indf0,w,c
  1252  0022B2                     u2110:
  1253  0022B2  6EDF               	movwf	indf2,c
  1254  0022B4  50DF               	movf	indf2,w,c
  1255  0022B6  A4D8               	btfss	status,2,c
  1256  0022B8  EF60  F011         	goto	u2121
  1257  0022BC  EF62  F011         	goto	u2120
  1258  0022C0                     u2121:
  1259  0022C0  EF3D  F011         	goto	l2327
  1260  0022C4                     u2120:
  1261  0022C4  0012               	return		;funcret
  1262  0022C6                     __end_of_strcpy:
  1263                           	callstack 0
  1264                           
  1265 ;; *************** function _sprintf *****************
  1266 ;; Defined at:
  1267 ;;		line 9 in file "C:\Program Files\Microchip\xc8\v2.31\pic\sources\c99\common\nf_sprintf.c"
  1268 ;; Parameters:    Size  Location     Type
  1269 ;;  s               2   87[COMRAM] PTR unsigned char 
  1270 ;;		 -> main@value(10), 
  1271 ;;  fmt             2   89[COMRAM] PTR const unsigned char 
  1272 ;;		 -> STR_13(4), STR_12(3), STR_10(4), STR_9(3), 
  1273 ;;		 -> STR_8(5), STR_6(3), STR_5(4), STR_3(3), 
  1274 ;; Auto vars:     Size  Location     Type
  1275 ;;  f               6    4[BANK0 ] struct _IO_FILE
  1276 ;;  ap              2    2[BANK0 ] PTR void [1]
  1277 ;;		 -> ?_sprintf(2), 
  1278 ;;  ret             2    0        int 
  1279 ;; Return value:  Size  Location     Type
  1280 ;;                  2   87[COMRAM] int 
  1281 ;; Registers used:
  1282 ;;		wreg, fsr1l, fsr1h, fsr2l, fsr2h, status,2, status,0, tblptrl, tblptrh, tblptru, cstack
  1283 ;; Tracked objects:
  1284 ;;		On entry : 0/0
  1285 ;;		On exit  : 0/0
  1286 ;;		Unchanged: 0/0
  1287 ;; Data sizes:     COMRAM   BANK0   BANK1   BANK2   BANK3   BANK4   BANK5   BANK6   BANK7
  1288 ;;      Params:         6       0       0       0       0       0       0       0       0
  1289 ;;      Locals:         0      10       0       0       0       0       0       0       0
  1290 ;;      Temps:          0       0       0       0       0       0       0       0       0
  1291 ;;      Totals:         6      10       0       0       0       0       0       0       0
  1292 ;;Total ram usage:       16 bytes
  1293 ;; Hardware stack levels used:    1
  1294 ;; Hardware stack levels required when called:    7
  1295 ;; This function calls:
  1296 ;;		_vfprintf
  1297 ;; This function is called by:
  1298 ;;		_main
  1299 ;; This function uses a non-reentrant model
  1300 ;;
  1301                           
  1302                           	psect	text3
  1303  002322                     __ptext3:
  1304                           	callstack 0
  1305  002322                     _sprintf:
  1306                           	callstack 23
  1307  002322  0E5C               	movlw	low (?_sprintf+4)
  1308  002324  0100               	movlb	0	; () banked
  1309  002326  6FBC               	movwf	sprintf@ap& (0+255),b
  1310  002328  0E00               	movlw	high (?_sprintf+4)
  1311  00232A  6FBD               	movwf	(sprintf@ap+1)& (0+255),b
  1312  00232C  C058  F0BE         	movff	sprintf@s,sprintf@f
  1313  002330  C059  F0BF         	movff	sprintf@s+1,sprintf@f+1
  1314  002334                     
  1315                           ; BSR set to: 0
  1316  002334  0E00               	movlw	0
  1317  002336  6FC1               	movwf	(sprintf@f+3)& (0+255),b
  1318  002338  0E00               	movlw	0
  1319  00233A  6FC0               	movwf	(sprintf@f+2)& (0+255),b
  1320  00233C                     
  1321                           ; BSR set to: 0
  1322  00233C  0E00               	movlw	0
  1323  00233E  6FC3               	movwf	(sprintf@f+5)& (0+255),b
  1324  002340  0E00               	movlw	0
  1325  002342  6FC2               	movwf	(sprintf@f+4)& (0+255),b
  1326  002344                     
  1327                           ; BSR set to: 0
  1328  002344  0EBE               	movlw	low sprintf@f
  1329  002346  6E50               	movwf	vfprintf@fp^0,c
  1330  002348  0E00               	movlw	high sprintf@f
  1331  00234A  6E51               	movwf	(vfprintf@fp+1)^0,c
  1332  00234C  C05A  F052         	movff	sprintf@fmt,vfprintf@fmt
  1333  002350  C05B  F053         	movff	sprintf@fmt+1,vfprintf@fmt+1
  1334  002354  0EBC               	movlw	low sprintf@ap
  1335  002356  6E54               	movwf	vfprintf@ap^0,c
  1336  002358  0E00               	movlw	high sprintf@ap
  1337  00235A  6E55               	movwf	(vfprintf@ap+1)^0,c
  1338  00235C  ECD5  F010         	call	_vfprintf	;wreg free
  1339  002360  0100               	movlb	0	; () banked
  1340  002362  51C0               	movf	(sprintf@f+2)& (0+255),w,b
  1341  002364  2458               	addwf	sprintf@s^0,w,c
  1342  002366  6ED9               	movwf	fsr2l,c
  1343  002368  51C1               	movf	(sprintf@f+3)& (0+255),w,b
  1344  00236A  2059               	addwfc	(sprintf@s+1)^0,w,c
  1345  00236C  6EDA               	movwf	fsr2h,c
  1346  00236E  0E00               	movlw	0
  1347  002370  6EDF               	movwf	indf2,c
  1348  002372                     
  1349                           ; BSR set to: 0
  1350  002372  0012               	return		;funcret
  1351  002374                     __end_of_sprintf:
  1352                           	callstack 0
  1353                           
  1354 ;; *************** function _vfprintf *****************
  1355 ;; Defined at:
  1356 ;;		line 1390 in file "C:\Program Files\Microchip\xc8\v2.31\pic\sources\c99\common\doprnt.c"
  1357 ;; Parameters:    Size  Location     Type
  1358 ;;  fp              2   79[COMRAM] PTR struct _IO_FILE
  1359 ;;		 -> sprintf@f(6), 
  1360 ;;  fmt             2   81[COMRAM] PTR const unsigned char 
  1361 ;;		 -> STR_13(4), STR_12(3), STR_10(4), STR_9(3), 
  1362 ;;		 -> STR_8(5), STR_6(3), STR_5(4), STR_3(3), 
  1363 ;;  ap              2   83[COMRAM] PTR PTR void 
  1364 ;;		 -> sprintf@ap(2), 
  1365 ;; Auto vars:     Size  Location     Type
  1366 ;;  cfmt            2   85[COMRAM] PTR unsigned char 
  1367 ;;		 -> STR_13(4), STR_12(3), STR_10(4), STR_9(3), 
  1368 ;;		 -> STR_8(5), STR_6(3), STR_5(4), STR_3(3), 
  1369 ;; Return value:  Size  Location     Type
  1370 ;;                  2   79[COMRAM] int 
  1371 ;; Registers used:
  1372 ;;		wreg, fsr1l, fsr1h, fsr2l, fsr2h, status,2, status,0, tblptrl, tblptrh, tblptru, cstack
  1373 ;; Tracked objects:
  1374 ;;		On entry : 0/0
  1375 ;;		On exit  : 0/0
  1376 ;;		Unchanged: 0/0
  1377 ;; Data sizes:     COMRAM   BANK0   BANK1   BANK2   BANK3   BANK4   BANK5   BANK6   BANK7
  1378 ;;      Params:         6       0       0       0       0       0       0       0       0
  1379 ;;      Locals:         2       0       0       0       0       0       0       0       0
  1380 ;;      Temps:          0       0       0       0       0       0       0       0       0
  1381 ;;      Totals:         8       0       0       0       0       0       0       0       0
  1382 ;;Total ram usage:        8 bytes
  1383 ;; Hardware stack levels used:    1
  1384 ;; Hardware stack levels required when called:    6
  1385 ;; This function calls:
  1386 ;;		_vfpfcnvrt
  1387 ;; This function is called by:
  1388 ;;		_sprintf
  1389 ;; This function uses a non-reentrant model
  1390 ;;
  1391                           
  1392                           	psect	text4
  1393  0021AA                     __ptext4:
  1394                           	callstack 0
  1395  0021AA                     _vfprintf:
  1396                           	callstack 23
  1397  0021AA                     
  1398                           ;C:\Program Files\Microchip\xc8\v2.31\pic\sources\c99\common\doprnt.c: 1390: int vfprint
      +                          f(FILE *fp, const char *fmt, va_list ap);C:\Program Files\Microchip\xc8\v2.31\pic\source
      +                          s\c99\common\doprnt.c: 1391: {;C:\Program Files\Microchip\xc8\v2.31\pic\sources\c99\comm
      +                          on\doprnt.c: 1393:     char *cfmt;;C:\Program Files\Microchip\xc8\v2.31\pic\sources\c99\
      +                          common\doprnt.c: 1395:     cfmt = (char *)fmt;
  1399  0021AA  C052  F056         	movff	vfprintf@fmt,vfprintf@cfmt
  1400  0021AE  C053  F057         	movff	vfprintf@fmt+1,vfprintf@cfmt+1
  1401  0021B2                     
  1402                           ;C:\Program Files\Microchip\xc8\v2.31\pic\sources\c99\common\doprnt.c: 1396:     nout = 
      +                          0;
  1403  0021B2  0E00               	movlw	0
  1404  0021B4  0100               	movlb	0	; () banked
  1405  0021B6  6F61               	movwf	(_nout+1)& (0+255),b
  1406  0021B8  0E00               	movlw	0
  1407  0021BA  6F60               	movwf	_nout& (0+255),b
  1408                           
  1409                           ;C:\Program Files\Microchip\xc8\v2.31\pic\sources\c99\common\doprnt.c: 1397:     while (
      +                          *cfmt) {
  1410  0021BC  EFF3  F010         	goto	l2783
  1411  0021C0                     l2781:
  1412                           
  1413                           ; BSR set to: 0
  1414                           ;C:\Program Files\Microchip\xc8\v2.31\pic\sources\c99\common\doprnt.c: 1398:         nou
      +                          t += vfpfcnvrt(fp, &cfmt, ap);
  1415  0021C0  C050  F040         	movff	vfprintf@fp,vfpfcnvrt@fp
  1416  0021C4  C051  F041         	movff	vfprintf@fp+1,vfpfcnvrt@fp+1
  1417  0021C8  0E56               	movlw	low vfprintf@cfmt
  1418  0021CA  6E42               	movwf	vfpfcnvrt@fmt^0,c
  1419  0021CC  0E00               	movlw	high vfprintf@cfmt
  1420  0021CE  6E43               	movwf	(vfpfcnvrt@fmt+1)^0,c
  1421  0021D0  C054  F044         	movff	vfprintf@ap,vfpfcnvrt@ap
  1422  0021D4  C055  F045         	movff	vfprintf@ap+1,vfpfcnvrt@ap+1
  1423  0021D8  EC14  F00B         	call	_vfpfcnvrt	;wreg free
  1424  0021DC  5040               	movf	?_vfpfcnvrt^0,w,c
  1425  0021DE  0100               	movlb	0	; () banked
  1426  0021E0  2760               	addwf	_nout& (0+255),f,b
  1427  0021E2  5041               	movf	(?_vfpfcnvrt+1)^0,w,c
  1428  0021E4  2361               	addwfc	(_nout+1)& (0+255),f,b
  1429  0021E6                     l2783:
  1430                           
  1431                           ; BSR set to: 0
  1432                           ;C:\Program Files\Microchip\xc8\v2.31\pic\sources\c99\common\doprnt.c: 1397:     while (
      +                          *cfmt) {
  1433  0021E6  C056  FFF6         	movff	vfprintf@cfmt,tblptrl
  1434  0021EA  C057  FFF7         	movff	vfprintf@cfmt+1,tblptrh
  1435  0021EE                     	if	0	;tblptru may be non-zero
  1436  0021EE                     	endif
  1437  0021EE                     	if	0	;tblptru may be non-zero
  1438  0021EE                     	endif
  1439  0021EE  0008               	tblrd		*
  1440  0021F0  50F5               	movf	tablat,w,c
  1441  0021F2  0900               	iorlw	0
  1442  0021F4  A4D8               	btfss	status,2,c
  1443  0021F6  EFFF  F010         	goto	u2931
  1444  0021FA  EF01  F011         	goto	u2930
  1445  0021FE                     u2931:
  1446  0021FE  EFE0  F010         	goto	l2781
  1447  002202                     u2930:
  1448  002202                     
  1449                           ; BSR set to: 0
  1450                           ;C:\Program Files\Microchip\xc8\v2.31\pic\sources\c99\common\doprnt.c: 1400:     return 
      +                          nout;
  1451  002202  C060  F050         	movff	_nout,?_vfprintf
  1452  002206  C061  F051         	movff	_nout+1,?_vfprintf+1
  1453  00220A                     
  1454                           ; BSR set to: 0
  1455  00220A  0012               	return		;funcret
  1456  00220C                     __end_of_vfprintf:
  1457                           	callstack 0
  1458                           
  1459 ;; *************** function _vfpfcnvrt *****************
  1460 ;; Defined at:
  1461 ;;		line 692 in file "C:\Program Files\Microchip\xc8\v2.31\pic\sources\c99\common\doprnt.c"
  1462 ;; Parameters:    Size  Location     Type
  1463 ;;  fp              2   63[COMRAM] PTR struct _IO_FILE
  1464 ;;		 -> sprintf@f(6), 
  1465 ;;  fmt             2   65[COMRAM] PTR PTR unsigned char 
  1466 ;;		 -> vfprintf@cfmt(2), 
  1467 ;;  ap              2   67[COMRAM] PTR PTR void 
  1468 ;;		 -> sprintf@ap(2), 
  1469 ;; Auto vars:     Size  Location     Type
  1470 ;;  ll              8   71[COMRAM] long long 
  1471 ;;  llu             8    0        unsigned long long 
  1472 ;;  f               4    0        unsigned long long 
  1473 ;;  vp              3    0        PTR void 
  1474 ;;  ct              3    0        unsigned char [3]
  1475 ;;  cp              3    0        PTR unsigned char 
  1476 ;;  i               2    0        int 
  1477 ;;  done            2    0        int 
  1478 ;;  c               1    0        unsigned char 
  1479 ;; Return value:  Size  Location     Type
  1480 ;;                  2   63[COMRAM] int 
  1481 ;; Registers used:
  1482 ;;		wreg, fsr1l, fsr1h, fsr2l, fsr2h, status,2, status,0, tblptrl, tblptrh, tblptru, cstack
  1483 ;; Tracked objects:
  1484 ;;		On entry : 0/0
  1485 ;;		On exit  : 0/0
  1486 ;;		Unchanged: 0/0
  1487 ;; Data sizes:     COMRAM   BANK0   BANK1   BANK2   BANK3   BANK4   BANK5   BANK6   BANK7
  1488 ;;      Params:         6       0       0       0       0       0       0       0       0
  1489 ;;      Locals:         8       0       0       0       0       0       0       0       0
  1490 ;;      Temps:          2       0       0       0       0       0       0       0       0
  1491 ;;      Totals:        16       0       0       0       0       0       0       0       0
  1492 ;;Total ram usage:       16 bytes
  1493 ;; Hardware stack levels used:    1
  1494 ;; Hardware stack levels required when called:    5
  1495 ;; This function calls:
  1496 ;;		_dtoa
  1497 ;;		_fputc
  1498 ;; This function is called by:
  1499 ;;		_vfprintf
  1500 ;; This function uses a non-reentrant model
  1501 ;;
  1502                           
  1503                           	psect	text5
  1504  001628                     __ptext5:
  1505                           	callstack 0
  1506  001628                     _vfpfcnvrt:
  1507                           	callstack 23
  1508  001628                     
  1509                           ;C:\Program Files\Microchip\xc8\v2.31\pic\sources\c99\common\doprnt.c: 692: static int v
      +                          fpfcnvrt(FILE *fp, char *fmt[], va_list ap);C:\Program Files\Microchip\xc8\v2.31\pic\sou
      +                          rces\c99\common\doprnt.c: 693: {;C:\Program Files\Microchip\xc8\v2.31\pic\sources\c99\co
      +                          mmon\doprnt.c: 694:     char c, *cp, ct[3];;C:\Program Files\Microchip\xc8\v2.31\pic\sou
      +                          rces\c99\common\doprnt.c: 695:     int done, i;;C:\Program Files\Microchip\xc8\v2.31\pic
      +                          \sources\c99\common\doprnt.c: 696:     long long ll;;C:\Program Files\Microchip\xc8\v2.3
      +                          1\pic\sources\c99\common\doprnt.c: 697:     unsigned long long llu;
  1510  001628  C042  FFD9         	movff	vfpfcnvrt@fmt,fsr2l
  1511  00162C  C043  FFDA         	movff	vfpfcnvrt@fmt+1,fsr2h
  1512  001630  CFDE FFF6          	movff	postinc2,tblptrl
  1513  001634  CFDD FFF7          	movff	postdec2,tblptrh
  1514  001638                     	if	0	;tblptru may be non-zero
  1515  001638                     	endif
  1516  001638                     	if	0	;tblptru may be non-zero
  1517  001638                     	endif
  1518  001638  0008               	tblrd		*
  1519  00163A  50F5               	movf	tablat,w,c
  1520  00163C  0A25               	xorlw	37
  1521  00163E  A4D8               	btfss	status,2,c
  1522  001640  EF24  F00B         	goto	u2041
  1523  001644  EF26  F00B         	goto	u2040
  1524  001648                     u2041:
  1525  001648  EFD2  F00B         	goto	l2309
  1526  00164C                     u2040:
  1527  00164C                     
  1528                           ;C:\Program Files\Microchip\xc8\v2.31\pic\sources\c99\common\doprnt.c: 703:         ++*f
      +                          mt;
  1529  00164C  C042  FFD9         	movff	vfpfcnvrt@fmt,fsr2l
  1530  001650  C043  FFDA         	movff	vfpfcnvrt@fmt+1,fsr2h
  1531  001654  2ADE               	incf	postinc2,f,c
  1532  001656  0E00               	movlw	0
  1533  001658  22DD               	addwfc	postdec2,f,c
  1534  00165A                     
  1535                           ;C:\Program Files\Microchip\xc8\v2.31\pic\sources\c99\common\doprnt.c: 705:         flag
      +                          s = width = 0;
  1536  00165A  0E00               	movlw	0
  1537  00165C  0100               	movlb	0	; () banked
  1538  00165E  6F63               	movwf	(_width+1)& (0+255),b
  1539  001660  0E00               	movlw	0
  1540  001662  6F62               	movwf	_width& (0+255),b
  1541  001664  C062  F066         	movff	_width,_flags
  1542  001668  C063  F067         	movff	_width+1,_flags+1
  1543  00166C                     
  1544                           ; BSR set to: 0
  1545                           ;C:\Program Files\Microchip\xc8\v2.31\pic\sources\c99\common\doprnt.c: 706:         prec
      +                           = -1;
  1546  00166C  6964               	setf	_prec& (0+255),b
  1547  00166E  6965               	setf	(_prec+1)& (0+255),b
  1548  001670                     
  1549                           ; BSR set to: 0
  1550                           ;C:\Program Files\Microchip\xc8\v2.31\pic\sources\c99\common\doprnt.c: 847:         if (
      +                          (*fmt[0] == 'd') || (*fmt[0] == 'i')) {
  1551  001670  C042  FFD9         	movff	vfpfcnvrt@fmt,fsr2l
  1552  001674  C043  FFDA         	movff	vfpfcnvrt@fmt+1,fsr2h
  1553  001678  CFDE FFF6          	movff	postinc2,tblptrl
  1554  00167C  CFDD FFF7          	movff	postdec2,tblptrh
  1555  001680                     	if	0	;tblptru may be non-zero
  1556  001680                     	endif
  1557  001680                     	if	0	;tblptru may be non-zero
  1558  001680                     	endif
  1559  001680  0008               	tblrd		*
  1560  001682  50F5               	movf	tablat,w,c
  1561  001684  0A64               	xorlw	100
  1562  001686  B4D8               	btfsc	status,2,c
  1563  001688  EF48  F00B         	goto	u2051
  1564  00168C  EF4A  F00B         	goto	u2050
  1565  001690                     u2051:
  1566  001690  EF5C  F00B         	goto	l2287
  1567  001694                     u2050:
  1568  001694                     
  1569                           ; BSR set to: 0
  1570  001694  C042  FFD9         	movff	vfpfcnvrt@fmt,fsr2l
  1571  001698  C043  FFDA         	movff	vfpfcnvrt@fmt+1,fsr2h
  1572  00169C  CFDE FFF6          	movff	postinc2,tblptrl
  1573  0016A0  CFDD FFF7          	movff	postdec2,tblptrh
  1574  0016A4                     	if	0	;tblptru may be non-zero
  1575  0016A4                     	endif
  1576  0016A4                     	if	0	;tblptru may be non-zero
  1577  0016A4                     	endif
  1578  0016A4  0008               	tblrd		*
  1579  0016A6  50F5               	movf	tablat,w,c
  1580  0016A8  0A69               	xorlw	105
  1581  0016AA  A4D8               	btfss	status,2,c
  1582  0016AC  EF5A  F00B         	goto	u2061
  1583  0016B0  EF5C  F00B         	goto	u2060
  1584  0016B4                     u2061:
  1585  0016B4  EF9C  F00B         	goto	l2293
  1586  0016B8                     u2060:
  1587  0016B8                     l2287:
  1588                           
  1589                           ; BSR set to: 0
  1590                           ;C:\Program Files\Microchip\xc8\v2.31\pic\sources\c99\common\doprnt.c: 849:             
      +                          ++*fmt;
  1591  0016B8  C042  FFD9         	movff	vfpfcnvrt@fmt,fsr2l
  1592  0016BC  C043  FFDA         	movff	vfpfcnvrt@fmt+1,fsr2h
  1593  0016C0  2ADE               	incf	postinc2,f,c
  1594  0016C2  0E00               	movlw	0
  1595  0016C4  22DD               	addwfc	postdec2,f,c
  1596                           
  1597                           ;C:\Program Files\Microchip\xc8\v2.31\pic\sources\c99\common\doprnt.c: 850:             
      +                          ll = (long long)(*(int *)__va_arg(*(int **)ap, (int)0));
  1598  0016C6  C044  FFD9         	movff	vfpfcnvrt@ap,fsr2l
  1599  0016CA  C045  FFDA         	movff	vfpfcnvrt@ap+1,fsr2h
  1600  0016CE  CFDF F046          	movff	indf2,??_vfpfcnvrt
  1601  0016D2  0E02               	movlw	2
  1602  0016D4  26DE               	addwf	postinc2,f,c
  1603  0016D6  CFDF F047          	movff	indf2,??_vfpfcnvrt+1
  1604  0016DA  0E00               	movlw	0
  1605  0016DC  22DD               	addwfc	postdec2,f,c
  1606  0016DE  C046  FFD9         	movff	??_vfpfcnvrt,fsr2l
  1607  0016E2  C047  FFDA         	movff	??_vfpfcnvrt+1,fsr2h
  1608  0016E6  CFDE F048          	movff	postinc2,vfpfcnvrt@ll
  1609  0016EA  CFDD F049          	movff	postdec2,vfpfcnvrt@ll+1
  1610  0016EE  0E00               	movlw	0
  1611  0016F0  BE49               	btfsc	(vfpfcnvrt@ll+1)^0,7,c
  1612  0016F2  0EFF               	movlw	-1
  1613  0016F4  6E4A               	movwf	(vfpfcnvrt@ll+2)^0,c
  1614  0016F6  6E4B               	movwf	(vfpfcnvrt@ll+3)^0,c
  1615  0016F8  6E4C               	movwf	(vfpfcnvrt@ll+4)^0,c
  1616  0016FA  6E4D               	movwf	(vfpfcnvrt@ll+5)^0,c
  1617  0016FC  6E4E               	movwf	(vfpfcnvrt@ll+6)^0,c
  1618  0016FE  6E4F               	movwf	(vfpfcnvrt@ll+7)^0,c
  1619  001700                     
  1620                           ; BSR set to: 0
  1621                           ;C:\Program Files\Microchip\xc8\v2.31\pic\sources\c99\common\doprnt.c: 852:             
      +                          return dtoa(fp, ll);
  1622  001700  C040  F01C         	movff	vfpfcnvrt@fp,dtoa@fp
  1623  001704  C041  F01D         	movff	vfpfcnvrt@fp+1,dtoa@fp+1
  1624  001708  C048  F01E         	movff	vfpfcnvrt@ll,dtoa@d
  1625  00170C  C049  F01F         	movff	vfpfcnvrt@ll+1,dtoa@d+1
  1626  001710  C04A  F020         	movff	vfpfcnvrt@ll+2,dtoa@d+2
  1627  001714  C04B  F021         	movff	vfpfcnvrt@ll+3,dtoa@d+3
  1628  001718  C04C  F022         	movff	vfpfcnvrt@ll+4,dtoa@d+4
  1629  00171C  C04D  F023         	movff	vfpfcnvrt@ll+5,dtoa@d+5
  1630  001720  C04E  F024         	movff	vfpfcnvrt@ll+6,dtoa@d+6
  1631  001724  C04F  F025         	movff	vfpfcnvrt@ll+7,dtoa@d+7
  1632  001728  EC45  F008         	call	_dtoa	;wreg free
  1633  00172C  C01C  F040         	movff	?_dtoa,?_vfpfcnvrt
  1634  001730  C01D  F041         	movff	?_dtoa+1,?_vfpfcnvrt+1
  1635  001734  EFED  F00B         	goto	l987
  1636  001738                     l2293:
  1637                           
  1638                           ; BSR set to: 0
  1639                           ;C:\Program Files\Microchip\xc8\v2.31\pic\sources\c99\common\doprnt.c: 1372:         if 
      +                          ((*fmt)[0] == '%') {
  1640  001738  C042  FFD9         	movff	vfpfcnvrt@fmt,fsr2l
  1641  00173C  C043  FFDA         	movff	vfpfcnvrt@fmt+1,fsr2h
  1642  001740  CFDE FFF6          	movff	postinc2,tblptrl
  1643  001744  CFDD FFF7          	movff	postdec2,tblptrh
  1644  001748                     	if	0	;tblptru may be non-zero
  1645  001748                     	endif
  1646  001748                     	if	0	;tblptru may be non-zero
  1647  001748                     	endif
  1648  001748  0008               	tblrd		*
  1649  00174A  50F5               	movf	tablat,w,c
  1650  00174C  0A25               	xorlw	37
  1651  00174E  A4D8               	btfss	status,2,c
  1652  001750  EFAC  F00B         	goto	u2071
  1653  001754  EFAE  F00B         	goto	u2070
  1654  001758                     u2071:
  1655  001758  EFC5  F00B         	goto	l2303
  1656  00175C                     u2070:
  1657  00175C                     
  1658                           ; BSR set to: 0
  1659                           ;C:\Program Files\Microchip\xc8\v2.31\pic\sources\c99\common\doprnt.c: 1373:            
      +                           ++*fmt;
  1660  00175C  C042  FFD9         	movff	vfpfcnvrt@fmt,fsr2l
  1661  001760  C043  FFDA         	movff	vfpfcnvrt@fmt+1,fsr2h
  1662  001764  2ADE               	incf	postinc2,f,c
  1663  001766  0E00               	movlw	0
  1664  001768  22DD               	addwfc	postdec2,f,c
  1665  00176A                     
  1666                           ; BSR set to: 0
  1667                           ;C:\Program Files\Microchip\xc8\v2.31\pic\sources\c99\common\doprnt.c: 1374:            
      +                           fputc((int)'%', fp);
  1668  00176A  0E00               	movlw	0
  1669  00176C  6E02               	movwf	(fputc@c+1)^0,c
  1670  00176E  0E25               	movlw	37
  1671  001770  6E01               	movwf	fputc@c^0,c
  1672  001772  C040  F003         	movff	vfpfcnvrt@fp,fputc@fp
  1673  001776  C041  F004         	movff	vfpfcnvrt@fp+1,fputc@fp+1
  1674  00177A  EC7C  F00F         	call	_fputc	;wreg free
  1675  00177E                     l2299:
  1676                           
  1677                           ;C:\Program Files\Microchip\xc8\v2.31\pic\sources\c99\common\doprnt.c: 1375:            
      +                           return 1;
  1678  00177E  0E00               	movlw	0
  1679  001780  6E41               	movwf	(?_vfpfcnvrt+1)^0,c
  1680  001782  0E01               	movlw	1
  1681  001784  6E40               	movwf	?_vfpfcnvrt^0,c
  1682  001786  EFED  F00B         	goto	l987
  1683  00178A                     l2303:
  1684                           
  1685                           ; BSR set to: 0
  1686                           ;C:\Program Files\Microchip\xc8\v2.31\pic\sources\c99\common\doprnt.c: 1379:         ++*
      +                          fmt;
  1687  00178A  C042  FFD9         	movff	vfpfcnvrt@fmt,fsr2l
  1688  00178E  C043  FFDA         	movff	vfpfcnvrt@fmt+1,fsr2h
  1689  001792  2ADE               	incf	postinc2,f,c
  1690  001794  0E00               	movlw	0
  1691  001796  22DD               	addwfc	postdec2,f,c
  1692  001798                     
  1693                           ; BSR set to: 0
  1694                           ;C:\Program Files\Microchip\xc8\v2.31\pic\sources\c99\common\doprnt.c: 1380:         ret
      +                          urn 0;
  1695  001798  0E00               	movlw	0
  1696  00179A  6E41               	movwf	(?_vfpfcnvrt+1)^0,c
  1697  00179C  0E00               	movlw	0
  1698  00179E  6E40               	movwf	?_vfpfcnvrt^0,c
  1699  0017A0  EFED  F00B         	goto	l987
  1700  0017A4                     l2309:
  1701                           
  1702                           ;C:\Program Files\Microchip\xc8\v2.31\pic\sources\c99\common\doprnt.c: 1384:     fputc((
      +                          int)(*fmt)[0], fp);
  1703  0017A4  C042  FFD9         	movff	vfpfcnvrt@fmt,fsr2l
  1704  0017A8  C043  FFDA         	movff	vfpfcnvrt@fmt+1,fsr2h
  1705  0017AC  CFDE FFF6          	movff	postinc2,tblptrl
  1706  0017B0  CFDD FFF7          	movff	postdec2,tblptrh
  1707  0017B4                     	if	0	;tblptru may be non-zero
  1708  0017B4                     	endif
  1709  0017B4                     	if	0	;tblptru may be non-zero
  1710  0017B4                     	endif
  1711  0017B4  0008               	tblrd		*
  1712  0017B6  50F5               	movf	tablat,w,c
  1713  0017B8  6E01               	movwf	fputc@c^0,c
  1714  0017BA  6A02               	clrf	(fputc@c+1)^0,c
  1715  0017BC  C040  F003         	movff	vfpfcnvrt@fp,fputc@fp
  1716  0017C0  C041  F004         	movff	vfpfcnvrt@fp+1,fputc@fp+1
  1717  0017C4  EC7C  F00F         	call	_fputc	;wreg free
  1718  0017C8                     
  1719                           ;C:\Program Files\Microchip\xc8\v2.31\pic\sources\c99\common\doprnt.c: 1385:     ++*fmt;
  1720  0017C8  C042  FFD9         	movff	vfpfcnvrt@fmt,fsr2l
  1721  0017CC  C043  FFDA         	movff	vfpfcnvrt@fmt+1,fsr2h
  1722  0017D0  2ADE               	incf	postinc2,f,c
  1723  0017D2  0E00               	movlw	0
  1724  0017D4  22DD               	addwfc	postdec2,f,c
  1725  0017D6  EFBF  F00B         	goto	l2299
  1726  0017DA                     l987:
  1727  0017DA  0012               	return		;funcret
  1728  0017DC                     __end_of_vfpfcnvrt:
  1729                           	callstack 0
  1730                           
  1731 ;; *************** function _dtoa *****************
  1732 ;; Defined at:
  1733 ;;		line 287 in file "C:\Program Files\Microchip\xc8\v2.31\pic\sources\c99\common\doprnt.c"
  1734 ;; Parameters:    Size  Location     Type
  1735 ;;  fp              2   27[COMRAM] PTR struct _IO_FILE
  1736 ;;		 -> sprintf@f(6), 
  1737 ;;  d               8   29[COMRAM] long long 
  1738 ;; Auto vars:     Size  Location     Type
  1739 ;;  n               8   53[COMRAM] long long 
  1740 ;;  i               2   61[COMRAM] int 
  1741 ;;  s               2   51[COMRAM] int 
  1742 ;;  w               2   49[COMRAM] int 
  1743 ;;  p               2   47[COMRAM] int 
  1744 ;; Return value:  Size  Location     Type
  1745 ;;                  2   27[COMRAM] int 
  1746 ;; Registers used:
  1747 ;;		wreg, fsr1l, fsr1h, fsr2l, fsr2h, status,2, status,0, cstack
  1748 ;; Tracked objects:
  1749 ;;		On entry : 0/0
  1750 ;;		On exit  : 0/0
  1751 ;;		Unchanged: 0/0
  1752 ;; Data sizes:     COMRAM   BANK0   BANK1   BANK2   BANK3   BANK4   BANK5   BANK6   BANK7
  1753 ;;      Params:        10       0       0       0       0       0       0       0       0
  1754 ;;      Locals:        18       0       0       0       0       0       0       0       0
  1755 ;;      Temps:          8       0       0       0       0       0       0       0       0
  1756 ;;      Totals:        36       0       0       0       0       0       0       0       0
  1757 ;;Total ram usage:       36 bytes
  1758 ;; Hardware stack levels used:    1
  1759 ;; Hardware stack levels required when called:    4
  1760 ;; This function calls:
  1761 ;;		___aodiv
  1762 ;;		___aomod
  1763 ;;		_abs
  1764 ;;		_pad
  1765 ;; This function is called by:
  1766 ;;		_vfpfcnvrt
  1767 ;; This function uses a non-reentrant model
  1768 ;;
  1769                           
  1770                           	psect	text6
  1771  00108A                     __ptext6:
  1772                           	callstack 0
  1773  00108A                     _dtoa:
  1774                           	callstack 23
  1775  00108A                     
  1776                           ;C:\Program Files\Microchip\xc8\v2.31\pic\sources\c99\common\doprnt.c: 287: static int d
      +                          toa(FILE *fp, long long d);C:\Program Files\Microchip\xc8\v2.31\pic\sources\c99\common\d
      +                          oprnt.c: 288: {;C:\Program Files\Microchip\xc8\v2.31\pic\sources\c99\common\doprnt.c: 28
      +                          9:     int i, p, s, w;;C:\Program Files\Microchip\xc8\v2.31\pic\sources\c99\common\doprn
      +                          t.c: 290:     long long n;;C:\Program Files\Microchip\xc8\v2.31\pic\sources\c99\common\d
      +                          oprnt.c: 293:     n = d;
  1777  00108A  C01E  F036         	movff	dtoa@d,dtoa@n
  1778  00108E  C01F  F037         	movff	dtoa@d+1,dtoa@n+1
  1779  001092  C020  F038         	movff	dtoa@d+2,dtoa@n+2
  1780  001096  C021  F039         	movff	dtoa@d+3,dtoa@n+3
  1781  00109A  C022  F03A         	movff	dtoa@d+4,dtoa@n+4
  1782  00109E  C023  F03B         	movff	dtoa@d+5,dtoa@n+5
  1783  0010A2  C024  F03C         	movff	dtoa@d+6,dtoa@n+6
  1784  0010A6  C025  F03D         	movff	dtoa@d+7,dtoa@n+7
  1785  0010AA                     
  1786                           ;C:\Program Files\Microchip\xc8\v2.31\pic\sources\c99\common\doprnt.c: 294:     s = n < 
      +                          0 ? 1 : 0;
  1787  0010AA  BE3D               	btfsc	(dtoa@n+7)^0,7,c
  1788  0010AC  EF5A  F008         	goto	u1891
  1789  0010B0  EF5D  F008         	goto	u1890
  1790  0010B4                     u1891:
  1791  0010B4  0E01               	movlw	1
  1792  0010B6  EF5E  F008         	goto	u1900
  1793  0010BA                     u1890:
  1794  0010BA  0E00               	movlw	0
  1795  0010BC                     u1900:
  1796  0010BC  6E34               	movwf	dtoa@s^0,c
  1797  0010BE  6A35               	clrf	(dtoa@s+1)^0,c
  1798                           
  1799                           ;C:\Program Files\Microchip\xc8\v2.31\pic\sources\c99\common\doprnt.c: 295:     if (s) {
  1800  0010C0  5034               	movf	dtoa@s^0,w,c
  1801  0010C2  1035               	iorwf	(dtoa@s+1)^0,w,c
  1802  0010C4  B4D8               	btfsc	status,2,c
  1803  0010C6  EF67  F008         	goto	u1911
  1804  0010CA  EF69  F008         	goto	u1910
  1805  0010CE                     u1911:
  1806  0010CE  EF79  F008         	goto	l2205
  1807  0010D2                     u1910:
  1808  0010D2                     
  1809                           ;C:\Program Files\Microchip\xc8\v2.31\pic\sources\c99\common\doprnt.c: 296:         n = 
      +                          -n;
  1810  0010D2  1E3D               	comf	(dtoa@n+7)^0,f,c
  1811  0010D4  1E3C               	comf	(dtoa@n+6)^0,f,c
  1812  0010D6  1E3B               	comf	(dtoa@n+5)^0,f,c
  1813  0010D8  1E3A               	comf	(dtoa@n+4)^0,f,c
  1814  0010DA  1E39               	comf	(dtoa@n+3)^0,f,c
  1815  0010DC  1E38               	comf	(dtoa@n+2)^0,f,c
  1816  0010DE  1E37               	comf	(dtoa@n+1)^0,f,c
  1817  0010E0  6C36               	negf	dtoa@n^0,c
  1818  0010E2  0E00               	movlw	0
  1819  0010E4  2237               	addwfc	(dtoa@n+1)^0,f,c
  1820  0010E6  2238               	addwfc	(dtoa@n+2)^0,f,c
  1821  0010E8  2239               	addwfc	(dtoa@n+3)^0,f,c
  1822  0010EA  223A               	addwfc	(dtoa@n+4)^0,f,c
  1823  0010EC  223B               	addwfc	(dtoa@n+5)^0,f,c
  1824  0010EE  223C               	addwfc	(dtoa@n+6)^0,f,c
  1825  0010F0  223D               	addwfc	(dtoa@n+7)^0,f,c
  1826  0010F2                     l2205:
  1827                           
  1828                           ;C:\Program Files\Microchip\xc8\v2.31\pic\sources\c99\common\doprnt.c: 300:     if (!(pr
      +                          ec < 0)) {
  1829  0010F2  0100               	movlb	0	; () banked
  1830  0010F4  BF65               	btfsc	(_prec+1)& (0+255),7,b
  1831  0010F6  EF7F  F008         	goto	u1921
  1832  0010FA  EF81  F008         	goto	u1920
  1833  0010FE                     u1921:
  1834  0010FE  EF82  F008         	goto	l2209
  1835  001102                     u1920:
  1836  001102                     
  1837                           ; BSR set to: 0
  1838                           ;C:\Program Files\Microchip\xc8\v2.31\pic\sources\c99\common\doprnt.c: 301:         flag
      +                          s &= ~(1 << 1);
  1839  001102  9366               	bcf	_flags& (0+255),1,b
  1840  001104                     l2209:
  1841                           
  1842                           ; BSR set to: 0
  1843                           ;C:\Program Files\Microchip\xc8\v2.31\pic\sources\c99\common\doprnt.c: 303:     p = (0 <
      +                           prec) ? prec : 1;
  1844  001104  BF65               	btfsc	(_prec+1)& (0+255),7,b
  1845  001106  EF8F  F008         	goto	u1930
  1846  00110A  5165               	movf	(_prec+1)& (0+255),w,b
  1847  00110C  E106               	bnz	u1931
  1848  00110E  0564               	decf	_prec& (0+255),w,b
  1849  001110  B0D8               	btfsc	status,0,c
  1850  001112  EF8D  F008         	goto	u1931
  1851  001116  EF8F  F008         	goto	u1930
  1852  00111A                     u1931:
  1853  00111A  EF95  F008         	goto	l960
  1854  00111E                     u1930:
  1855  00111E                     
  1856                           ; BSR set to: 0
  1857  00111E  0E00               	movlw	0
  1858  001120  6E31               	movwf	(dtoa@p+1)^0,c
  1859  001122  0E01               	movlw	1
  1860  001124  6E30               	movwf	dtoa@p^0,c
  1861  001126  EF99  F008         	goto	l962
  1862  00112A                     l960:
  1863                           
  1864                           ; BSR set to: 0
  1865  00112A  C064  F030         	movff	_prec,dtoa@p
  1866  00112E  C065  F031         	movff	_prec+1,dtoa@p+1
  1867  001132                     l962:
  1868                           
  1869                           ; BSR set to: 0
  1870                           ;C:\Program Files\Microchip\xc8\v2.31\pic\sources\c99\common\doprnt.c: 304:     w = widt
      +                          h;
  1871  001132  C062  F032         	movff	_width,dtoa@w
  1872  001136  C063  F033         	movff	_width+1,dtoa@w+1
  1873  00113A                     
  1874                           ; BSR set to: 0
  1875                           ;C:\Program Files\Microchip\xc8\v2.31\pic\sources\c99\common\doprnt.c: 305:     if (s ||
      +                           (flags & (1 << 2))) {
  1876  00113A  5034               	movf	dtoa@s^0,w,c
  1877  00113C  1035               	iorwf	(dtoa@s+1)^0,w,c
  1878  00113E  A4D8               	btfss	status,2,c
  1879  001140  EFA4  F008         	goto	u1941
  1880  001144  EFA6  F008         	goto	u1940
  1881  001148                     u1941:
  1882  001148  EFAD  F008         	goto	l2217
  1883  00114C                     u1940:
  1884  00114C                     
  1885                           ; BSR set to: 0
  1886  00114C  A566               	btfss	_flags& (0+255),2,b
  1887  00114E  EFAB  F008         	goto	u1951
  1888  001152  EFAD  F008         	goto	u1950
  1889  001156                     u1951:
  1890  001156  EFB0  F008         	goto	l2219
  1891  00115A                     u1950:
  1892  00115A                     l2217:
  1893                           
  1894                           ; BSR set to: 0
  1895                           ;C:\Program Files\Microchip\xc8\v2.31\pic\sources\c99\common\doprnt.c: 306:         --w;
  1896  00115A  0632               	decf	dtoa@w^0,f,c
  1897  00115C  A0D8               	btfss	status,0,c
  1898  00115E  0633               	decf	(dtoa@w+1)^0,f,c
  1899  001160                     l2219:
  1900                           
  1901                           ; BSR set to: 0
  1902                           ;C:\Program Files\Microchip\xc8\v2.31\pic\sources\c99\common\doprnt.c: 310:     i = size
      +                          of(dbuf) - 1;
  1903  001160  0E00               	movlw	0
  1904  001162  6E3F               	movwf	(dtoa@i+1)^0,c
  1905  001164  0E1F               	movlw	31
  1906  001166  6E3E               	movwf	dtoa@i^0,c
  1907  001168                     
  1908                           ; BSR set to: 0
  1909                           ;C:\Program Files\Microchip\xc8\v2.31\pic\sources\c99\common\doprnt.c: 311:     dbuf[i] 
      +                          = '\0';
  1910  001168  0E00               	movlw	0
  1911  00116A  6FB9               	movwf	(_dbuf+31)& (0+255),b
  1912                           
  1913                           ;C:\Program Files\Microchip\xc8\v2.31\pic\sources\c99\common\doprnt.c: 312:     while (!
      +                          (i < 1) && (n || (0 < p) || ((0 < w) && (flags & (1 << 1))))) {
  1914  00116C  EF34  F009         	goto	l2233
  1915  001170                     l2223:
  1916                           
  1917                           ;C:\Program Files\Microchip\xc8\v2.31\pic\sources\c99\common\doprnt.c: 313:         --i;
  1918  001170  063E               	decf	dtoa@i^0,f,c
  1919  001172  A0D8               	btfss	status,0,c
  1920  001174  063F               	decf	(dtoa@i+1)^0,f,c
  1921  001176                     
  1922                           ;C:\Program Files\Microchip\xc8\v2.31\pic\sources\c99\common\doprnt.c: 314:         dbuf
      +                          [i] = (char)((int)'0' + abs(n % 10));
  1923  001176  0E9A               	movlw	low _dbuf
  1924  001178  243E               	addwf	dtoa@i^0,w,c
  1925  00117A  6ED9               	movwf	fsr2l,c
  1926  00117C  0E00               	movlw	high _dbuf
  1927  00117E  203F               	addwfc	(dtoa@i+1)^0,w,c
  1928  001180  6EDA               	movwf	fsr2h,c
  1929  001182  C036  F001         	movff	dtoa@n,___aomod@dividend
  1930  001186  C037  F002         	movff	dtoa@n+1,___aomod@dividend+1
  1931  00118A  C038  F003         	movff	dtoa@n+2,___aomod@dividend+2
  1932  00118E  C039  F004         	movff	dtoa@n+3,___aomod@dividend+3
  1933  001192  C03A  F005         	movff	dtoa@n+4,___aomod@dividend+4
  1934  001196  C03B  F006         	movff	dtoa@n+5,___aomod@dividend+5
  1935  00119A  C03C  F007         	movff	dtoa@n+6,___aomod@dividend+6
  1936  00119E  C03D  F008         	movff	dtoa@n+7,___aomod@dividend+7
  1937  0011A2  0E0A               	movlw	10
  1938  0011A4  6E09               	movwf	___aomod@divisor^0,c
  1939  0011A6  0E00               	movlw	0
  1940  0011A8  6E0A               	movwf	(___aomod@divisor+1)^0,c
  1941  0011AA  0E00               	movlw	0
  1942  0011AC  6E0B               	movwf	(___aomod@divisor+2)^0,c
  1943  0011AE  0E00               	movlw	0
  1944  0011B0  6E0C               	movwf	(___aomod@divisor+3)^0,c
  1945  0011B2  0E00               	movlw	0
  1946  0011B4  6E0D               	movwf	(___aomod@divisor+4)^0,c
  1947  0011B6  0E00               	movlw	0
  1948  0011B8  6E0E               	movwf	(___aomod@divisor+5)^0,c
  1949  0011BA  0E00               	movlw	0
  1950  0011BC  6E0F               	movwf	(___aomod@divisor+6)^0,c
  1951  0011BE  0E00               	movlw	0
  1952  0011C0  6E10               	movwf	(___aomod@divisor+7)^0,c
  1953  0011C2  EC47  F00E         	call	___aomod	;wreg free
  1954  0011C6  C001  F026         	movff	?___aomod,??_dtoa
  1955  0011CA  C002  F027         	movff	?___aomod+1,??_dtoa+1
  1956  0011CE  C003  F028         	movff	?___aomod+2,??_dtoa+2
  1957  0011D2  C004  F029         	movff	?___aomod+3,??_dtoa+3
  1958  0011D6  C005  F02A         	movff	?___aomod+4,??_dtoa+4
  1959  0011DA  C006  F02B         	movff	?___aomod+5,??_dtoa+5
  1960  0011DE  C007  F02C         	movff	?___aomod+6,??_dtoa+6
  1961  0011E2  C008  F02D         	movff	?___aomod+7,??_dtoa+7
  1962  0011E6  C026  F013         	movff	??_dtoa,abs@a
  1963  0011EA  C028  F014         	movff	??_dtoa+2,abs@a+1
  1964  0011EE  EC28  F012         	call	_abs	;wreg free
  1965  0011F2  5013               	movf	?_abs^0,w,c
  1966  0011F4  0F30               	addlw	48
  1967  0011F6  6EDF               	movwf	indf2,c
  1968  0011F8                     
  1969                           ;C:\Program Files\Microchip\xc8\v2.31\pic\sources\c99\common\doprnt.c: 315:         --p;
  1970  0011F8  0630               	decf	dtoa@p^0,f,c
  1971  0011FA  A0D8               	btfss	status,0,c
  1972  0011FC  0631               	decf	(dtoa@p+1)^0,f,c
  1973  0011FE                     
  1974                           ;C:\Program Files\Microchip\xc8\v2.31\pic\sources\c99\common\doprnt.c: 316:         --w;
  1975  0011FE  0632               	decf	dtoa@w^0,f,c
  1976  001200  A0D8               	btfss	status,0,c
  1977  001202  0633               	decf	(dtoa@w+1)^0,f,c
  1978  001204                     
  1979                           ;C:\Program Files\Microchip\xc8\v2.31\pic\sources\c99\common\doprnt.c: 317:         n = 
      +                          n / 10;
  1980  001204  C036  F001         	movff	dtoa@n,___aodiv@dividend
  1981  001208  C037  F002         	movff	dtoa@n+1,___aodiv@dividend+1
  1982  00120C  C038  F003         	movff	dtoa@n+2,___aodiv@dividend+2
  1983  001210  C039  F004         	movff	dtoa@n+3,___aodiv@dividend+3
  1984  001214  C03A  F005         	movff	dtoa@n+4,___aodiv@dividend+4
  1985  001218  C03B  F006         	movff	dtoa@n+5,___aodiv@dividend+5
  1986  00121C  C03C  F007         	movff	dtoa@n+6,___aodiv@dividend+6
  1987  001220  C03D  F008         	movff	dtoa@n+7,___aodiv@dividend+7
  1988  001224  0E0A               	movlw	10
  1989  001226  6E09               	movwf	___aodiv@divisor^0,c
  1990  001228  0E00               	movlw	0
  1991  00122A  6E0A               	movwf	(___aodiv@divisor+1)^0,c
  1992  00122C  0E00               	movlw	0
  1993  00122E  6E0B               	movwf	(___aodiv@divisor+2)^0,c
  1994  001230  0E00               	movlw	0
  1995  001232  6E0C               	movwf	(___aodiv@divisor+3)^0,c
  1996  001234  0E00               	movlw	0
  1997  001236  6E0D               	movwf	(___aodiv@divisor+4)^0,c
  1998  001238  0E00               	movlw	0
  1999  00123A  6E0E               	movwf	(___aodiv@divisor+5)^0,c
  2000  00123C  0E00               	movlw	0
  2001  00123E  6E0F               	movwf	(___aodiv@divisor+6)^0,c
  2002  001240  0E00               	movlw	0
  2003  001242  6E10               	movwf	(___aodiv@divisor+7)^0,c
  2004  001244  ECC8  F00C         	call	___aodiv	;wreg free
  2005  001248  C001  F036         	movff	?___aodiv,dtoa@n
  2006  00124C  C002  F037         	movff	?___aodiv+1,dtoa@n+1
  2007  001250  C003  F038         	movff	?___aodiv+2,dtoa@n+2
  2008  001254  C004  F039         	movff	?___aodiv+3,dtoa@n+3
  2009  001258  C005  F03A         	movff	?___aodiv+4,dtoa@n+4
  2010  00125C  C006  F03B         	movff	?___aodiv+5,dtoa@n+5
  2011  001260  C007  F03C         	movff	?___aodiv+6,dtoa@n+6
  2012  001264  C008  F03D         	movff	?___aodiv+7,dtoa@n+7
  2013  001268                     l2233:
  2014                           
  2015                           ;C:\Program Files\Microchip\xc8\v2.31\pic\sources\c99\common\doprnt.c: 312:     while (!
      +                          (i < 1) && (n || (0 < p) || ((0 < w) && (flags & (1 << 1))))) {
  2016  001268  BE3F               	btfsc	(dtoa@i+1)^0,7,c
  2017  00126A  EF3F  F009         	goto	u1961
  2018  00126E  503F               	movf	(dtoa@i+1)^0,w,c
  2019  001270  E108               	bnz	u1960
  2020  001272  043E               	decf	dtoa@i^0,w,c
  2021  001274  A0D8               	btfss	status,0,c
  2022  001276  EF3F  F009         	goto	u1961
  2023  00127A  EF41  F009         	goto	u1960
  2024  00127E                     u1961:
  2025  00127E  EF72  F009         	goto	l2243
  2026  001282                     u1960:
  2027  001282  5036               	movf	dtoa@n^0,w,c
  2028  001284  1037               	iorwf	(dtoa@n+1)^0,w,c
  2029  001286  1038               	iorwf	(dtoa@n+2)^0,w,c
  2030  001288  1039               	iorwf	(dtoa@n+3)^0,w,c
  2031  00128A  103A               	iorwf	(dtoa@n+4)^0,w,c
  2032  00128C  103B               	iorwf	(dtoa@n+5)^0,w,c
  2033  00128E  103C               	iorwf	(dtoa@n+6)^0,w,c
  2034  001290  103D               	iorwf	(dtoa@n+7)^0,w,c
  2035  001292  A4D8               	btfss	status,2,c
  2036  001294  EF4E  F009         	goto	u1971
  2037  001298  EF50  F009         	goto	u1970
  2038  00129C                     u1971:
  2039  00129C  EFB8  F008         	goto	l2223
  2040  0012A0                     u1970:
  2041  0012A0  BE31               	btfsc	(dtoa@p+1)^0,7,c
  2042  0012A2  EF5D  F009         	goto	u1980
  2043  0012A6  5031               	movf	(dtoa@p+1)^0,w,c
  2044  0012A8  E106               	bnz	u1981
  2045  0012AA  0430               	decf	dtoa@p^0,w,c
  2046  0012AC  B0D8               	btfsc	status,0,c
  2047  0012AE  EF5B  F009         	goto	u1981
  2048  0012B2  EF5D  F009         	goto	u1980
  2049  0012B6                     u1981:
  2050  0012B6  EFB8  F008         	goto	l2223
  2051  0012BA                     u1980:
  2052  0012BA  BE33               	btfsc	(dtoa@w+1)^0,7,c
  2053  0012BC  EF68  F009         	goto	u1991
  2054  0012C0  5033               	movf	(dtoa@w+1)^0,w,c
  2055  0012C2  E108               	bnz	u1990
  2056  0012C4  0432               	decf	dtoa@w^0,w,c
  2057  0012C6  A0D8               	btfss	status,0,c
  2058  0012C8  EF68  F009         	goto	u1991
  2059  0012CC  EF6A  F009         	goto	u1990
  2060  0012D0                     u1991:
  2061  0012D0  EF72  F009         	goto	l2243
  2062  0012D4                     u1990:
  2063  0012D4  0100               	movlb	0	; () banked
  2064  0012D6  B366               	btfsc	_flags& (0+255),1,b
  2065  0012D8  EF70  F009         	goto	u2001
  2066  0012DC  EF72  F009         	goto	u2000
  2067  0012E0                     u2001:
  2068  0012E0  EFB8  F008         	goto	l2223
  2069  0012E4                     u2000:
  2070  0012E4                     l2243:
  2071                           
  2072                           ;C:\Program Files\Microchip\xc8\v2.31\pic\sources\c99\common\doprnt.c: 321:     if (s ||
      +                           (flags & (1 << 2))) {
  2073  0012E4  5034               	movf	dtoa@s^0,w,c
  2074  0012E6  1035               	iorwf	(dtoa@s+1)^0,w,c
  2075  0012E8  A4D8               	btfss	status,2,c
  2076  0012EA  EF79  F009         	goto	u2011
  2077  0012EE  EF7B  F009         	goto	u2010
  2078  0012F2                     u2011:
  2079  0012F2  EF83  F009         	goto	l2247
  2080  0012F6                     u2010:
  2081  0012F6  0100               	movlb	0	; () banked
  2082  0012F8  A566               	btfss	_flags& (0+255),2,b
  2083  0012FA  EF81  F009         	goto	u2021
  2084  0012FE  EF83  F009         	goto	u2020
  2085  001302                     u2021:
  2086  001302  EFA1  F009         	goto	l2257
  2087  001306                     u2020:
  2088  001306                     l2247:
  2089                           
  2090                           ;C:\Program Files\Microchip\xc8\v2.31\pic\sources\c99\common\doprnt.c: 322:         --i;
  2091  001306  063E               	decf	dtoa@i^0,f,c
  2092  001308  A0D8               	btfss	status,0,c
  2093  00130A  063F               	decf	(dtoa@i+1)^0,f,c
  2094  00130C                     
  2095                           ;C:\Program Files\Microchip\xc8\v2.31\pic\sources\c99\common\doprnt.c: 323:         dbuf
      +                          [i] = s ? '-' : '+';
  2096  00130C  5034               	movf	dtoa@s^0,w,c
  2097  00130E  1035               	iorwf	(dtoa@s+1)^0,w,c
  2098  001310  A4D8               	btfss	status,2,c
  2099  001312  EF8D  F009         	goto	u2031
  2100  001316  EF8F  F009         	goto	u2030
  2101  00131A                     u2031:
  2102  00131A  EF95  F009         	goto	l2253
  2103  00131E                     u2030:
  2104  00131E  0E00               	movlw	0
  2105  001320  6E2F               	movwf	(_dtoa$1125+1)^0,c
  2106  001322  0E2B               	movlw	43
  2107  001324  6E2E               	movwf	_dtoa$1125^0,c
  2108  001326  EF99  F009         	goto	l2255
  2109  00132A                     l2253:
  2110  00132A  0E00               	movlw	0
  2111  00132C  6E2F               	movwf	(_dtoa$1125+1)^0,c
  2112  00132E  0E2D               	movlw	45
  2113  001330  6E2E               	movwf	_dtoa$1125^0,c
  2114  001332                     l2255:
  2115  001332  0E9A               	movlw	low _dbuf
  2116  001334  243E               	addwf	dtoa@i^0,w,c
  2117  001336  6ED9               	movwf	fsr2l,c
  2118  001338  0E00               	movlw	high _dbuf
  2119  00133A  203F               	addwfc	(dtoa@i+1)^0,w,c
  2120  00133C  6EDA               	movwf	fsr2h,c
  2121  00133E  C02E  FFDF         	movff	_dtoa$1125,indf2
  2122  001342                     l2257:
  2123                           
  2124                           ;C:\Program Files\Microchip\xc8\v2.31\pic\sources\c99\common\doprnt.c: 327:     return p
      +                          ad(fp, &dbuf[i], w);
  2125  001342  C01C  F011         	movff	dtoa@fp,pad@fp
  2126  001346  C01D  F012         	movff	dtoa@fp+1,pad@fp+1
  2127  00134A  0E9A               	movlw	low _dbuf
  2128  00134C  243E               	addwf	dtoa@i^0,w,c
  2129  00134E  6E13               	movwf	pad@buf^0,c
  2130  001350  0E00               	movlw	high _dbuf
  2131  001352  203F               	addwfc	(dtoa@i+1)^0,w,c
  2132  001354  6E14               	movwf	(pad@buf+1)^0,c
  2133  001356  C032  F015         	movff	dtoa@w,pad@p
  2134  00135A  C033  F016         	movff	dtoa@w+1,pad@p+1
  2135  00135E  ECE1  F00F         	call	_pad	;wreg free
  2136  001362  C011  F01C         	movff	?_pad,?_dtoa
  2137  001366  C012  F01D         	movff	?_pad+1,?_dtoa+1
  2138  00136A  0012               	return		;funcret
  2139  00136C                     __end_of_dtoa:
  2140                           	callstack 0
  2141                           
  2142 ;; *************** function _pad *****************
  2143 ;; Defined at:
  2144 ;;		line 72 in file "C:\Program Files\Microchip\xc8\v2.31\pic\sources\c99\common\doprnt.c"
  2145 ;; Parameters:    Size  Location     Type
  2146 ;;  fp              2   16[COMRAM] PTR struct _IO_FILE
  2147 ;;		 -> sprintf@f(6), 
  2148 ;;  buf             2   18[COMRAM] PTR unsigned char 
  2149 ;;		 -> dbuf(32), 
  2150 ;;  p               2   20[COMRAM] int 
  2151 ;; Auto vars:     Size  Location     Type
  2152 ;;  w               2   25[COMRAM] int 
  2153 ;;  i               2   23[COMRAM] int 
  2154 ;; Return value:  Size  Location     Type
  2155 ;;                  2   16[COMRAM] int 
  2156 ;; Registers used:
  2157 ;;		wreg, fsr1l, fsr1h, fsr2l, fsr2h, status,2, status,0, cstack
  2158 ;; Tracked objects:
  2159 ;;		On entry : 0/0
  2160 ;;		On exit  : 0/0
  2161 ;;		Unchanged: 0/0
  2162 ;; Data sizes:     COMRAM   BANK0   BANK1   BANK2   BANK3   BANK4   BANK5   BANK6   BANK7
  2163 ;;      Params:         6       0       0       0       0       0       0       0       0
  2164 ;;      Locals:         4       0       0       0       0       0       0       0       0
  2165 ;;      Temps:          1       0       0       0       0       0       0       0       0
  2166 ;;      Totals:        11       0       0       0       0       0       0       0       0
  2167 ;;Total ram usage:       11 bytes
  2168 ;; Hardware stack levels used:    1
  2169 ;; Hardware stack levels required when called:    3
  2170 ;; This function calls:
  2171 ;;		_fputc
  2172 ;;		_fputs
  2173 ;;		_strlen
  2174 ;; This function is called by:
  2175 ;;		_dtoa
  2176 ;; This function uses a non-reentrant model
  2177 ;;
  2178                           
  2179                           	psect	text7
  2180  001FC2                     __ptext7:
  2181                           	callstack 0
  2182  001FC2                     _pad:
  2183                           	callstack 23
  2184  001FC2                     
  2185                           ;C:\Program Files\Microchip\xc8\v2.31\pic\sources\c99\common\doprnt.c: 72: static int pa
      +                          d(FILE *fp, char *buf, int p);C:\Program Files\Microchip\xc8\v2.31\pic\sources\c99\commo
      +                          n\doprnt.c: 73: {;C:\Program Files\Microchip\xc8\v2.31\pic\sources\c99\common\doprnt.c: 
      +                          74:     int i, w;;C:\Program Files\Microchip\xc8\v2.31\pic\sources\c99\common\doprnt.c: 
      +                          77:     if (flags & (1 << 0)) {
  2186  001FC2  0100               	movlb	0	; () banked
  2187  001FC4  A166               	btfss	_flags& (0+255),0,b
  2188  001FC6  EFE7  F00F         	goto	u1821
  2189  001FCA  EFE9  F00F         	goto	u1820
  2190  001FCE                     u1821:
  2191  001FCE  EFF3  F00F         	goto	l2161
  2192  001FD2                     u1820:
  2193  001FD2                     
  2194                           ; BSR set to: 0
  2195                           ;C:\Program Files\Microchip\xc8\v2.31\pic\sources\c99\common\doprnt.c: 78:         fputs
      +                          ((const char *)buf, fp);
  2196  001FD2  C013  F00A         	movff	pad@buf,fputs@s
  2197  001FD6  C014  F00B         	movff	pad@buf+1,fputs@s+1
  2198  001FDA  C011  F00C         	movff	pad@fp,fputs@fp
  2199  001FDE  C012  F00D         	movff	pad@fp+1,fputs@fp+1
  2200  001FE2  EC06  F012         	call	_fputs	;wreg free
  2201  001FE6                     l2161:
  2202                           
  2203                           ;C:\Program Files\Microchip\xc8\v2.31\pic\sources\c99\common\doprnt.c: 82:     w = (p < 
      +                          0) ? 0 : p;
  2204  001FE6  BE16               	btfsc	(pad@p+1)^0,7,c
  2205  001FE8  EFF8  F00F         	goto	u1831
  2206  001FEC  EFFA  F00F         	goto	u1830
  2207  001FF0                     u1831:
  2208  001FF0  EF00  F010         	goto	l2165
  2209  001FF4                     u1830:
  2210  001FF4  C015  F01A         	movff	pad@p,pad@w
  2211  001FF8  C016  F01B         	movff	pad@p+1,pad@w+1
  2212  001FFC  EF04  F010         	goto	l949
  2213  002000                     l2165:
  2214  002000  0E00               	movlw	0
  2215  002002  6E1B               	movwf	(pad@w+1)^0,c
  2216  002004  0E00               	movlw	0
  2217  002006  6E1A               	movwf	pad@w^0,c
  2218  002008                     l949:
  2219                           
  2220                           ;C:\Program Files\Microchip\xc8\v2.31\pic\sources\c99\common\doprnt.c: 83:     i = 0;
  2221  002008  0E00               	movlw	0
  2222  00200A  6E19               	movwf	(pad@i+1)^0,c
  2223  00200C  0E00               	movlw	0
  2224  00200E  6E18               	movwf	pad@i^0,c
  2225                           
  2226                           ;C:\Program Files\Microchip\xc8\v2.31\pic\sources\c99\common\doprnt.c: 84:     while (i 
      +                          < w) {
  2227  002010  EF16  F010         	goto	l2171
  2228  002014                     l2167:
  2229                           
  2230                           ;C:\Program Files\Microchip\xc8\v2.31\pic\sources\c99\common\doprnt.c: 85:         fputc
      +                          (' ', fp);
  2231  002014  0E00               	movlw	0
  2232  002016  6E02               	movwf	(fputc@c+1)^0,c
  2233  002018  0E20               	movlw	32
  2234  00201A  6E01               	movwf	fputc@c^0,c
  2235  00201C  C011  F003         	movff	pad@fp,fputc@fp
  2236  002020  C012  F004         	movff	pad@fp+1,fputc@fp+1
  2237  002024  EC7C  F00F         	call	_fputc	;wreg free
  2238  002028                     
  2239                           ;C:\Program Files\Microchip\xc8\v2.31\pic\sources\c99\common\doprnt.c: 86:         ++i;
  2240  002028  4A18               	infsnz	pad@i^0,f,c
  2241  00202A  2A19               	incf	(pad@i+1)^0,f,c
  2242  00202C                     l2171:
  2243                           
  2244                           ;C:\Program Files\Microchip\xc8\v2.31\pic\sources\c99\common\doprnt.c: 84:     while (i 
      +                          < w) {
  2245  00202C  501A               	movf	pad@w^0,w,c
  2246  00202E  5C18               	subwf	pad@i^0,w,c
  2247  002030  5019               	movf	(pad@i+1)^0,w,c
  2248  002032  0A80               	xorlw	128
  2249  002034  6E17               	movwf	??_pad^0,c
  2250  002036  501B               	movf	(pad@w+1)^0,w,c
  2251  002038  0A80               	xorlw	128
  2252  00203A  5817               	subwfb	??_pad^0,w,c
  2253  00203C  A0D8               	btfss	status,0,c
  2254  00203E  EF23  F010         	goto	u1841
  2255  002042  EF25  F010         	goto	u1840
  2256  002046                     u1841:
  2257  002046  EF0A  F010         	goto	l2167
  2258  00204A                     u1840:
  2259  00204A                     
  2260                           ;C:\Program Files\Microchip\xc8\v2.31\pic\sources\c99\common\doprnt.c: 90:     if (!(fla
      +                          gs & (1 << 0))) {
  2261  00204A  0100               	movlb	0	; () banked
  2262  00204C  B166               	btfsc	_flags& (0+255),0,b
  2263  00204E  EF2B  F010         	goto	u1851
  2264  002052  EF2D  F010         	goto	u1850
  2265  002056                     u1851:
  2266  002056  EF37  F010         	goto	l2175
  2267  00205A                     u1850:
  2268  00205A                     
  2269                           ; BSR set to: 0
  2270                           ;C:\Program Files\Microchip\xc8\v2.31\pic\sources\c99\common\doprnt.c: 91:         fputs
      +                          ((const char *)buf, fp);
  2271  00205A  C013  F00A         	movff	pad@buf,fputs@s
  2272  00205E  C014  F00B         	movff	pad@buf+1,fputs@s+1
  2273  002062  C011  F00C         	movff	pad@fp,fputs@fp
  2274  002066  C012  F00D         	movff	pad@fp+1,fputs@fp+1
  2275  00206A  EC06  F012         	call	_fputs	;wreg free
  2276  00206E                     l2175:
  2277                           
  2278                           ;C:\Program Files\Microchip\xc8\v2.31\pic\sources\c99\common\doprnt.c: 94:     return (i
      +                          nt)(strlen(buf) + (size_t)w);
  2279  00206E  C013  F001         	movff	pad@buf,strlen@s
  2280  002072  C014  F002         	movff	pad@buf+1,strlen@s+1
  2281  002076  EC68  F012         	call	_strlen	;wreg free
  2282  00207A  501A               	movf	pad@w^0,w,c
  2283  00207C  2401               	addwf	?_strlen^0,w,c
  2284  00207E  6E11               	movwf	?_pad^0,c
  2285  002080  501B               	movf	(pad@w+1)^0,w,c
  2286  002082  2002               	addwfc	(?_strlen+1)^0,w,c
  2287  002084  6E12               	movwf	(?_pad+1)^0,c
  2288  002086  0012               	return		;funcret
  2289  002088                     __end_of_pad:
  2290                           	callstack 0
  2291                           
  2292 ;; *************** function _strlen *****************
  2293 ;; Defined at:
  2294 ;;		line 5 in file "C:\Program Files\Microchip\xc8\v2.31\pic\sources\c99\common\strlen.c"
  2295 ;; Parameters:    Size  Location     Type
  2296 ;;  s               2    0[COMRAM] PTR const unsigned char 
  2297 ;;		 -> dbuf(32), val_aux(50), 
  2298 ;; Auto vars:     Size  Location     Type
  2299 ;;  a               2    2[COMRAM] PTR const unsigned char 
  2300 ;;		 -> dbuf(32), val_aux(50), 
  2301 ;; Return value:  Size  Location     Type
  2302 ;;                  2    0[COMRAM] unsigned int 
  2303 ;; Registers used:
  2304 ;;		wreg, fsr2l, fsr2h, status,2, status,0
  2305 ;; Tracked objects:
  2306 ;;		On entry : 0/0
  2307 ;;		On exit  : 0/0
  2308 ;;		Unchanged: 0/0
  2309 ;; Data sizes:     COMRAM   BANK0   BANK1   BANK2   BANK3   BANK4   BANK5   BANK6   BANK7
  2310 ;;      Params:         2       0       0       0       0       0       0       0       0
  2311 ;;      Locals:         2       0       0       0       0       0       0       0       0
  2312 ;;      Temps:          0       0       0       0       0       0       0       0       0
  2313 ;;      Totals:         4       0       0       0       0       0       0       0       0
  2314 ;;Total ram usage:        4 bytes
  2315 ;; Hardware stack levels used:    1
  2316 ;; This function calls:
  2317 ;;		Nothing
  2318 ;; This function is called by:
  2319 ;;		_pad
  2320 ;;		_strcat
  2321 ;; This function uses a non-reentrant model
  2322 ;;
  2323                           
  2324                           	psect	text8
  2325  0024D0                     __ptext8:
  2326                           	callstack 0
  2327  0024D0                     _strlen:
  2328                           	callstack 29
  2329  0024D0  C001  F003         	movff	strlen@s,strlen@a
  2330  0024D4  C002  F004         	movff	strlen@s+1,strlen@a+1
  2331  0024D8  EF70  F012         	goto	l2071
  2332  0024DC                     l2069:
  2333  0024DC  4A01               	infsnz	strlen@s^0,f,c
  2334  0024DE  2A02               	incf	(strlen@s+1)^0,f,c
  2335  0024E0                     l2071:
  2336  0024E0  C001  FFD9         	movff	strlen@s,fsr2l
  2337  0024E4  C002  FFDA         	movff	strlen@s+1,fsr2h
  2338  0024E8  50DF               	movf	indf2,w,c
  2339  0024EA  A4D8               	btfss	status,2,c
  2340  0024EC  EF7A  F012         	goto	u1681
  2341  0024F0  EF7C  F012         	goto	u1680
  2342  0024F4                     u1681:
  2343  0024F4  EF6E  F012         	goto	l2069
  2344  0024F8                     u1680:
  2345  0024F8  5003               	movf	strlen@a^0,w,c
  2346  0024FA  5C01               	subwf	strlen@s^0,w,c
  2347  0024FC  6E01               	movwf	?_strlen^0,c
  2348  0024FE  5004               	movf	(strlen@a+1)^0,w,c
  2349  002500  5802               	subwfb	(strlen@s+1)^0,w,c
  2350  002502  6E02               	movwf	(?_strlen+1)^0,c
  2351  002504  0012               	return		;funcret
  2352  002506                     __end_of_strlen:
  2353                           	callstack 0
  2354                           
  2355 ;; *************** function _fputs *****************
  2356 ;; Defined at:
  2357 ;;		line 8 in file "C:\Program Files\Microchip\xc8\v2.31\pic\sources\c99\common\nf_fputs.c"
  2358 ;; Parameters:    Size  Location     Type
  2359 ;;  s               2    9[COMRAM] PTR const unsigned char 
  2360 ;;		 -> dbuf(32), 
  2361 ;;  fp              2   11[COMRAM] PTR struct _IO_FILE
  2362 ;;		 -> sprintf@f(6), 
  2363 ;; Auto vars:     Size  Location     Type
  2364 ;;  i               2   14[COMRAM] int 
  2365 ;;  c               1   13[COMRAM] unsigned char 
  2366 ;; Return value:  Size  Location     Type
  2367 ;;                  2    9[COMRAM] int 
  2368 ;; Registers used:
  2369 ;;		wreg, fsr1l, fsr1h, fsr2l, fsr2h, status,2, status,0, cstack
  2370 ;; Tracked objects:
  2371 ;;		On entry : 0/0
  2372 ;;		On exit  : 0/0
  2373 ;;		Unchanged: 0/0
  2374 ;; Data sizes:     COMRAM   BANK0   BANK1   BANK2   BANK3   BANK4   BANK5   BANK6   BANK7
  2375 ;;      Params:         4       0       0       0       0       0       0       0       0
  2376 ;;      Locals:         3       0       0       0       0       0       0       0       0
  2377 ;;      Temps:          0       0       0       0       0       0       0       0       0
  2378 ;;      Totals:         7       0       0       0       0       0       0       0       0
  2379 ;;Total ram usage:        7 bytes
  2380 ;; Hardware stack levels used:    1
  2381 ;; Hardware stack levels required when called:    2
  2382 ;; This function calls:
  2383 ;;		_fputc
  2384 ;; This function is called by:
  2385 ;;		_pad
  2386 ;; This function uses a non-reentrant model
  2387 ;;
  2388                           
  2389                           	psect	text9
  2390  00240C                     __ptext9:
  2391                           	callstack 0
  2392  00240C                     _fputs:
  2393                           	callstack 23
  2394  00240C  0E00               	movlw	0
  2395  00240E  6E10               	movwf	(fputs@i+1)^0,c
  2396  002410  0E00               	movlw	0
  2397  002412  6E0F               	movwf	fputs@i^0,c
  2398  002414  EF17  F012         	goto	l2065
  2399  002418                     l2061:
  2400  002418  C00E  F001         	movff	fputs@c,fputc@c
  2401  00241C  6A02               	clrf	(fputc@c+1)^0,c
  2402  00241E  C00C  F003         	movff	fputs@fp,fputc@fp
  2403  002422  C00D  F004         	movff	fputs@fp+1,fputc@fp+1
  2404  002426  EC7C  F00F         	call	_fputc	;wreg free
  2405  00242A  4A0F               	infsnz	fputs@i^0,f,c
  2406  00242C  2A10               	incf	(fputs@i+1)^0,f,c
  2407  00242E                     l2065:
  2408  00242E  500F               	movf	fputs@i^0,w,c
  2409  002430  240A               	addwf	fputs@s^0,w,c
  2410  002432  6ED9               	movwf	fsr2l,c
  2411  002434  5010               	movf	(fputs@i+1)^0,w,c
  2412  002436  200B               	addwfc	(fputs@s+1)^0,w,c
  2413  002438  6EDA               	movwf	fsr2h,c
  2414  00243A  50DF               	movf	indf2,w,c
  2415  00243C  6E0E               	movwf	fputs@c^0,c
  2416  00243E  500E               	movf	fputs@c^0,w,c
  2417  002440  A4D8               	btfss	status,2,c
  2418  002442  EF25  F012         	goto	u1671
  2419  002446  EF27  F012         	goto	u1670
  2420  00244A                     u1671:
  2421  00244A  EF0C  F012         	goto	l2061
  2422  00244E                     u1670:
  2423  00244E  0012               	return		;funcret
  2424  002450                     __end_of_fputs:
  2425                           	callstack 0
  2426                           
  2427 ;; *************** function _fputc *****************
  2428 ;; Defined at:
  2429 ;;		line 8 in file "C:\Program Files\Microchip\xc8\v2.31\pic\sources\c99\common\nf_fputc.c"
  2430 ;; Parameters:    Size  Location     Type
  2431 ;;  c               2    0[COMRAM] int 
  2432 ;;  fp              2    2[COMRAM] PTR struct _IO_FILE
  2433 ;;		 -> sprintf@f(6), 
  2434 ;; Auto vars:     Size  Location     Type
  2435 ;;		None
  2436 ;; Return value:  Size  Location     Type
  2437 ;;                  2    0[COMRAM] int 
  2438 ;; Registers used:
  2439 ;;		wreg, fsr1l, fsr1h, fsr2l, fsr2h, status,2, status,0, cstack
  2440 ;; Tracked objects:
  2441 ;;		On entry : 0/0
  2442 ;;		On exit  : 0/0
  2443 ;;		Unchanged: 0/0
  2444 ;; Data sizes:     COMRAM   BANK0   BANK1   BANK2   BANK3   BANK4   BANK5   BANK6   BANK7
  2445 ;;      Params:         4       0       0       0       0       0       0       0       0
  2446 ;;      Locals:         0       0       0       0       0       0       0       0       0
  2447 ;;      Temps:          5       0       0       0       0       0       0       0       0
  2448 ;;      Totals:         9       0       0       0       0       0       0       0       0
  2449 ;;Total ram usage:        9 bytes
  2450 ;; Hardware stack levels used:    1
  2451 ;; Hardware stack levels required when called:    1
  2452 ;; This function calls:
  2453 ;;		_putch
  2454 ;; This function is called by:
  2455 ;;		_pad
  2456 ;;		_vfpfcnvrt
  2457 ;;		_fputs
  2458 ;; This function uses a non-reentrant model
  2459 ;;
  2460                           
  2461                           	psect	text10
  2462  001EF8                     __ptext10:
  2463                           	callstack 0
  2464  001EF8                     _fputc:
  2465                           	callstack 26
  2466  001EF8  5003               	movf	fputc@fp^0,w,c
  2467  001EFA  1004               	iorwf	(fputc@fp+1)^0,w,c
  2468  001EFC  B4D8               	btfsc	status,2,c
  2469  001EFE  EF83  F00F         	goto	u1631
  2470  001F02  EF85  F00F         	goto	u1630
  2471  001F06                     u1631:
  2472  001F06  EF8E  F00F         	goto	l2049
  2473  001F0A                     u1630:
  2474  001F0A  5003               	movf	fputc@fp^0,w,c
  2475  001F0C  1004               	iorwf	(fputc@fp+1)^0,w,c
  2476  001F0E  A4D8               	btfss	status,2,c
  2477  001F10  EF8C  F00F         	goto	u1641
  2478  001F14  EF8E  F00F         	goto	u1640
  2479  001F18                     u1641:
  2480  001F18  EF93  F00F         	goto	l2051
  2481  001F1C                     u1640:
  2482  001F1C                     l2049:
  2483  001F1C  5001               	movf	fputc@c^0,w,c
  2484  001F1E  EC17  F013         	call	_putch
  2485  001F22  EFE0  F00F         	goto	l1013
  2486  001F26                     l2051:
  2487  001F26  EE20 F004          	lfsr	2,4
  2488  001F2A  5003               	movf	fputc@fp^0,w,c
  2489  001F2C  26D9               	addwf	fsr2l,f,c
  2490  001F2E  5004               	movf	(fputc@fp+1)^0,w,c
  2491  001F30  22DA               	addwfc	fsr2h,f,c
  2492  001F32  50DE               	movf	postinc2,w,c
  2493  001F34  10DE               	iorwf	postinc2,w,c
  2494  001F36  B4D8               	btfsc	status,2,c
  2495  001F38  EFA0  F00F         	goto	u1651
  2496  001F3C  EFA2  F00F         	goto	u1650
  2497  001F40                     u1651:
  2498  001F40  EFBD  F00F         	goto	l2055
  2499  001F44                     u1650:
  2500  001F44  EE20 F004          	lfsr	2,4
  2501  001F48  5003               	movf	fputc@fp^0,w,c
  2502  001F4A  26D9               	addwf	fsr2l,f,c
  2503  001F4C  5004               	movf	(fputc@fp+1)^0,w,c
  2504  001F4E  22DA               	addwfc	fsr2h,f,c
  2505  001F50  EE10 F002          	lfsr	1,2
  2506  001F54  5003               	movf	fputc@fp^0,w,c
  2507  001F56  26E1               	addwf	fsr1l,f,c
  2508  001F58  5004               	movf	(fputc@fp+1)^0,w,c
  2509  001F5A  22E2               	addwfc	fsr1h,f,c
  2510  001F5C  50DE               	movf	postinc2,w,c
  2511  001F5E  5CE6               	subwf	postinc1,w,c
  2512  001F60  50E6               	movf	postinc1,w,c
  2513  001F62  0A80               	xorlw	128
  2514  001F64  6E09               	movwf	(??_fputc+4)^0,c
  2515  001F66  50DE               	movf	postinc2,w,c
  2516  001F68  0A80               	xorlw	128
  2517  001F6A  5809               	subwfb	(??_fputc+4)^0,w,c
  2518  001F6C  B0D8               	btfsc	status,0,c
  2519  001F6E  EFBB  F00F         	goto	u1661
  2520  001F72  EFBD  F00F         	goto	u1660
  2521  001F76                     u1661:
  2522  001F76  EFE0  F00F         	goto	l1013
  2523  001F7A                     u1660:
  2524  001F7A                     l2055:
  2525  001F7A  EE20 F002          	lfsr	2,2
  2526  001F7E  5003               	movf	fputc@fp^0,w,c
  2527  001F80  26D9               	addwf	fsr2l,f,c
  2528  001F82  5004               	movf	(fputc@fp+1)^0,w,c
  2529  001F84  22DA               	addwfc	fsr2h,f,c
  2530  001F86  CFDE F005          	movff	postinc2,??_fputc
  2531  001F8A  CFDD F006          	movff	postdec2,??_fputc+1
  2532  001F8E  C003  FFD9         	movff	fputc@fp,fsr2l
  2533  001F92  C004  FFDA         	movff	fputc@fp+1,fsr2h
  2534  001F96  CFDE F007          	movff	postinc2,??_fputc+2
  2535  001F9A  CFDD F008          	movff	postdec2,??_fputc+3
  2536  001F9E  5005               	movf	??_fputc^0,w,c
  2537  001FA0  2407               	addwf	(??_fputc+2)^0,w,c
  2538  001FA2  6ED9               	movwf	fsr2l,c
  2539  001FA4  5006               	movf	(??_fputc+1)^0,w,c
  2540  001FA6  2008               	addwfc	(??_fputc+3)^0,w,c
  2541  001FA8  6EDA               	movwf	fsr2h,c
  2542  001FAA  C001  FFDF         	movff	fputc@c,indf2
  2543  001FAE  EE20 F002          	lfsr	2,2
  2544  001FB2  5003               	movf	fputc@fp^0,w,c
  2545  001FB4  26D9               	addwf	fsr2l,f,c
  2546  001FB6  5004               	movf	(fputc@fp+1)^0,w,c
  2547  001FB8  22DA               	addwfc	fsr2h,f,c
  2548  001FBA  2ADE               	incf	postinc2,f,c
  2549  001FBC  0E00               	movlw	0
  2550  001FBE  22DD               	addwfc	postdec2,f,c
  2551  001FC0                     l1013:
  2552  001FC0  0012               	return		;funcret
  2553  001FC2                     __end_of_fputc:
  2554                           	callstack 0
  2555                           
  2556 ;; *************** function _putch *****************
  2557 ;; Defined at:
  2558 ;;		line 7 in file "C:\Program Files\Microchip\xc8\v2.31\pic\sources\c99\common\putch.c"
  2559 ;; Parameters:    Size  Location     Type
  2560 ;;  c               1    wreg     unsigned char 
  2561 ;; Auto vars:     Size  Location     Type
  2562 ;;  c               1    0[COMRAM] unsigned char 
  2563 ;; Return value:  Size  Location     Type
  2564 ;;                  1    wreg      void 
  2565 ;; Registers used:
  2566 ;;		wreg
  2567 ;; Tracked objects:
  2568 ;;		On entry : 0/0
  2569 ;;		On exit  : 0/0
  2570 ;;		Unchanged: 0/0
  2571 ;; Data sizes:     COMRAM   BANK0   BANK1   BANK2   BANK3   BANK4   BANK5   BANK6   BANK7
  2572 ;;      Params:         0       0       0       0       0       0       0       0       0
  2573 ;;      Locals:         0       0       0       0       0       0       0       0       0
  2574 ;;      Temps:          0       0       0       0       0       0       0       0       0
  2575 ;;      Totals:         0       0       0       0       0       0       0       0       0
  2576 ;;Total ram usage:        0 bytes
  2577 ;; Hardware stack levels used:    1
  2578 ;; This function calls:
  2579 ;;		Nothing
  2580 ;; This function is called by:
  2581 ;;		_fputc
  2582 ;; This function uses a non-reentrant model
  2583 ;;
  2584                           
  2585                           	psect	text11
  2586  00262E                     __ptext11:
  2587                           	callstack 0
  2588  00262E                     _putch:
  2589                           	callstack 26
  2590  00262E  0012               	return		;funcret
  2591  002630                     __end_of_putch:
  2592                           	callstack 0
  2593                           
  2594 ;; *************** function _abs *****************
  2595 ;; Defined at:
  2596 ;;		line 1 in file "C:\Program Files\Microchip\xc8\v2.31\pic\sources\c99\common\abs.c"
  2597 ;; Parameters:    Size  Location     Type
  2598 ;;  a               2   18[COMRAM] int 
  2599 ;; Auto vars:     Size  Location     Type
  2600 ;;		None
  2601 ;; Return value:  Size  Location     Type
  2602 ;;                  2   18[COMRAM] int 
  2603 ;; Registers used:
  2604 ;;		wreg, status,2, status,0
  2605 ;; Tracked objects:
  2606 ;;		On entry : 0/0
  2607 ;;		On exit  : 0/0
  2608 ;;		Unchanged: 0/0
  2609 ;; Data sizes:     COMRAM   BANK0   BANK1   BANK2   BANK3   BANK4   BANK5   BANK6   BANK7
  2610 ;;      Params:         2       0       0       0       0       0       0       0       0
  2611 ;;      Locals:         0       0       0       0       0       0       0       0       0
  2612 ;;      Temps:          2       0       0       0       0       0       0       0       0
  2613 ;;      Totals:         4       0       0       0       0       0       0       0       0
  2614 ;;Total ram usage:        4 bytes
  2615 ;; Hardware stack levels used:    1
  2616 ;; This function calls:
  2617 ;;		Nothing
  2618 ;; This function is called by:
  2619 ;;		_dtoa
  2620 ;; This function uses a non-reentrant model
  2621 ;;
  2622                           
  2623                           	psect	text12
  2624  002450                     __ptext12:
  2625                           	callstack 0
  2626  002450                     _abs:
  2627                           	callstack 26
  2628  002450  BE14               	btfsc	(abs@a+1)^0,7,c
  2629  002452  EF35  F012         	goto	u1860
  2630  002456  5014               	movf	(abs@a+1)^0,w,c
  2631  002458  E106               	bnz	u1861
  2632  00245A  0413               	decf	abs@a^0,w,c
  2633  00245C  B0D8               	btfsc	status,0,c
  2634  00245E  EF33  F012         	goto	u1861
  2635  002462  EF35  F012         	goto	u1860
  2636  002466                     u1861:
  2637  002466  EF43  F012         	goto	l998
  2638  00246A                     u1860:
  2639  00246A  C013  F015         	movff	abs@a,??_abs
  2640  00246E  C014  F016         	movff	abs@a+1,??_abs+1
  2641  002472  1E15               	comf	??_abs^0,f,c
  2642  002474  1E16               	comf	(??_abs+1)^0,f,c
  2643  002476  4A15               	infsnz	??_abs^0,f,c
  2644  002478  2A16               	incf	(??_abs+1)^0,f,c
  2645  00247A  C015  F013         	movff	??_abs,?_abs
  2646  00247E  C016  F014         	movff	??_abs+1,?_abs+1
  2647  002482  EF47  F012         	goto	l1001
  2648  002486                     l998:
  2649  002486  C013  F013         	movff	abs@a,?_abs
  2650  00248A  C014  F014         	movff	abs@a+1,?_abs+1
  2651  00248E                     l1001:
  2652  00248E  0012               	return		;funcret
  2653  002490                     __end_of_abs:
  2654                           	callstack 0
  2655                           
  2656 ;; *************** function ___aomod *****************
  2657 ;; Defined at:
  2658 ;;		line 9 in file "C:\Program Files\Microchip\xc8\v2.31\pic\sources\c99\common\aomod.c"
  2659 ;; Parameters:    Size  Location     Type
  2660 ;;  dividend        8    0[COMRAM] long long 
  2661 ;;  divisor         8    8[COMRAM] long long 
  2662 ;; Auto vars:     Size  Location     Type
  2663 ;;  sign            1   17[COMRAM] unsigned char 
  2664 ;;  counter         1   16[COMRAM] unsigned char 
  2665 ;; Return value:  Size  Location     Type
  2666 ;;                  8    0[COMRAM] long long 
  2667 ;; Registers used:
  2668 ;;		wreg, status,2, status,0
  2669 ;; Tracked objects:
  2670 ;;		On entry : 0/0
  2671 ;;		On exit  : 0/0
  2672 ;;		Unchanged: 0/0
  2673 ;; Data sizes:     COMRAM   BANK0   BANK1   BANK2   BANK3   BANK4   BANK5   BANK6   BANK7
  2674 ;;      Params:        16       0       0       0       0       0       0       0       0
  2675 ;;      Locals:         2       0       0       0       0       0       0       0       0
  2676 ;;      Temps:          0       0       0       0       0       0       0       0       0
  2677 ;;      Totals:        18       0       0       0       0       0       0       0       0
  2678 ;;Total ram usage:       18 bytes
  2679 ;; Hardware stack levels used:    1
  2680 ;; This function calls:
  2681 ;;		Nothing
  2682 ;; This function is called by:
  2683 ;;		_dtoa
  2684 ;; This function uses a non-reentrant model
  2685 ;;
  2686                           
  2687                           	psect	text13
  2688  001C8E                     __ptext13:
  2689                           	callstack 0
  2690  001C8E                     ___aomod:
  2691                           	callstack 26
  2692  001C8E  0E00               	movlw	0
  2693  001C90  6E12               	movwf	___aomod@sign^0,c
  2694  001C92  BE08               	btfsc	(___aomod@dividend+7)^0,7,c
  2695  001C94  EF50  F00E         	goto	u1760
  2696  001C98  EF4E  F00E         	goto	u1761
  2697  001C9C                     u1761:
  2698  001C9C  EF62  F00E         	goto	l2129
  2699  001CA0                     u1760:
  2700  001CA0  1E08               	comf	(___aomod@dividend+7)^0,f,c
  2701  001CA2  1E07               	comf	(___aomod@dividend+6)^0,f,c
  2702  001CA4  1E06               	comf	(___aomod@dividend+5)^0,f,c
  2703  001CA6  1E05               	comf	(___aomod@dividend+4)^0,f,c
  2704  001CA8  1E04               	comf	(___aomod@dividend+3)^0,f,c
  2705  001CAA  1E03               	comf	(___aomod@dividend+2)^0,f,c
  2706  001CAC  1E02               	comf	(___aomod@dividend+1)^0,f,c
  2707  001CAE  6C01               	negf	___aomod@dividend^0,c
  2708  001CB0  0E00               	movlw	0
  2709  001CB2  2202               	addwfc	(___aomod@dividend+1)^0,f,c
  2710  001CB4  2203               	addwfc	(___aomod@dividend+2)^0,f,c
  2711  001CB6  2204               	addwfc	(___aomod@dividend+3)^0,f,c
  2712  001CB8  2205               	addwfc	(___aomod@dividend+4)^0,f,c
  2713  001CBA  2206               	addwfc	(___aomod@dividend+5)^0,f,c
  2714  001CBC  2207               	addwfc	(___aomod@dividend+6)^0,f,c
  2715  001CBE  2208               	addwfc	(___aomod@dividend+7)^0,f,c
  2716  001CC0  0E01               	movlw	1
  2717  001CC2  6E12               	movwf	___aomod@sign^0,c
  2718  001CC4                     l2129:
  2719  001CC4  BE10               	btfsc	(___aomod@divisor+7)^0,7,c
  2720  001CC6  EF69  F00E         	goto	u1770
  2721  001CCA  EF67  F00E         	goto	u1771
  2722  001CCE                     u1771:
  2723  001CCE  EF79  F00E         	goto	l2133
  2724  001CD2                     u1770:
  2725  001CD2  1E10               	comf	(___aomod@divisor+7)^0,f,c
  2726  001CD4  1E0F               	comf	(___aomod@divisor+6)^0,f,c
  2727  001CD6  1E0E               	comf	(___aomod@divisor+5)^0,f,c
  2728  001CD8  1E0D               	comf	(___aomod@divisor+4)^0,f,c
  2729  001CDA  1E0C               	comf	(___aomod@divisor+3)^0,f,c
  2730  001CDC  1E0B               	comf	(___aomod@divisor+2)^0,f,c
  2731  001CDE  1E0A               	comf	(___aomod@divisor+1)^0,f,c
  2732  001CE0  6C09               	negf	___aomod@divisor^0,c
  2733  001CE2  0E00               	movlw	0
  2734  001CE4  220A               	addwfc	(___aomod@divisor+1)^0,f,c
  2735  001CE6  220B               	addwfc	(___aomod@divisor+2)^0,f,c
  2736  001CE8  220C               	addwfc	(___aomod@divisor+3)^0,f,c
  2737  001CEA  220D               	addwfc	(___aomod@divisor+4)^0,f,c
  2738  001CEC  220E               	addwfc	(___aomod@divisor+5)^0,f,c
  2739  001CEE  220F               	addwfc	(___aomod@divisor+6)^0,f,c
  2740  001CF0  2210               	addwfc	(___aomod@divisor+7)^0,f,c
  2741  001CF2                     l2133:
  2742  001CF2  5009               	movf	___aomod@divisor^0,w,c
  2743  001CF4  100A               	iorwf	(___aomod@divisor+1)^0,w,c
  2744  001CF6  100B               	iorwf	(___aomod@divisor+2)^0,w,c
  2745  001CF8  100C               	iorwf	(___aomod@divisor+3)^0,w,c
  2746  001CFA  100D               	iorwf	(___aomod@divisor+4)^0,w,c
  2747  001CFC  100E               	iorwf	(___aomod@divisor+5)^0,w,c
  2748  001CFE  100F               	iorwf	(___aomod@divisor+6)^0,w,c
  2749  001D00  1010               	iorwf	(___aomod@divisor+7)^0,w,c
  2750  001D02  B4D8               	btfsc	status,2,c
  2751  001D04  EF86  F00E         	goto	u1781
  2752  001D08  EF88  F00E         	goto	u1780
  2753  001D0C                     u1781:
  2754  001D0C  EFD0  F00E         	goto	l2149
  2755  001D10                     u1780:
  2756  001D10  0E01               	movlw	1
  2757  001D12  6E11               	movwf	___aomod@counter^0,c
  2758  001D14  EF96  F00E         	goto	l2139
  2759  001D18                     l2137:
  2760  001D18  90D8               	bcf	status,0,c
  2761  001D1A  3609               	rlcf	___aomod@divisor^0,f,c
  2762  001D1C  360A               	rlcf	(___aomod@divisor+1)^0,f,c
  2763  001D1E  360B               	rlcf	(___aomod@divisor+2)^0,f,c
  2764  001D20  360C               	rlcf	(___aomod@divisor+3)^0,f,c
  2765  001D22  360D               	rlcf	(___aomod@divisor+4)^0,f,c
  2766  001D24  360E               	rlcf	(___aomod@divisor+5)^0,f,c
  2767  001D26  360F               	rlcf	(___aomod@divisor+6)^0,f,c
  2768  001D28  3610               	rlcf	(___aomod@divisor+7)^0,f,c
  2769  001D2A  2A11               	incf	___aomod@counter^0,f,c
  2770  001D2C                     l2139:
  2771  001D2C  AE10               	btfss	(___aomod@divisor+7)^0,7,c
  2772  001D2E  EF9B  F00E         	goto	u1791
  2773  001D32  EF9D  F00E         	goto	u1790
  2774  001D36                     u1791:
  2775  001D36  EF8C  F00E         	goto	l2137
  2776  001D3A                     u1790:
  2777  001D3A                     l2141:
  2778  001D3A  5009               	movf	___aomod@divisor^0,w,c
  2779  001D3C  5C01               	subwf	___aomod@dividend^0,w,c
  2780  001D3E  500A               	movf	(___aomod@divisor+1)^0,w,c
  2781  001D40  5802               	subwfb	(___aomod@dividend+1)^0,w,c
  2782  001D42  500B               	movf	(___aomod@divisor+2)^0,w,c
  2783  001D44  5803               	subwfb	(___aomod@dividend+2)^0,w,c
  2784  001D46  500C               	movf	(___aomod@divisor+3)^0,w,c
  2785  001D48  5804               	subwfb	(___aomod@dividend+3)^0,w,c
  2786  001D4A  500D               	movf	(___aomod@divisor+4)^0,w,c
  2787  001D4C  5805               	subwfb	(___aomod@dividend+4)^0,w,c
  2788  001D4E  500E               	movf	(___aomod@divisor+5)^0,w,c
  2789  001D50  5806               	subwfb	(___aomod@dividend+5)^0,w,c
  2790  001D52  500F               	movf	(___aomod@divisor+6)^0,w,c
  2791  001D54  5807               	subwfb	(___aomod@dividend+6)^0,w,c
  2792  001D56  5010               	movf	(___aomod@divisor+7)^0,w,c
  2793  001D58  5808               	subwfb	(___aomod@dividend+7)^0,w,c
  2794  001D5A  A0D8               	btfss	status,0,c
  2795  001D5C  EFB2  F00E         	goto	u1801
  2796  001D60  EFB4  F00E         	goto	u1800
  2797  001D64                     u1801:
  2798  001D64  EFC4  F00E         	goto	l2145
  2799  001D68                     u1800:
  2800  001D68  5009               	movf	___aomod@divisor^0,w,c
  2801  001D6A  5E01               	subwf	___aomod@dividend^0,f,c
  2802  001D6C  500A               	movf	(___aomod@divisor+1)^0,w,c
  2803  001D6E  5A02               	subwfb	(___aomod@dividend+1)^0,f,c
  2804  001D70  500B               	movf	(___aomod@divisor+2)^0,w,c
  2805  001D72  5A03               	subwfb	(___aomod@dividend+2)^0,f,c
  2806  001D74  500C               	movf	(___aomod@divisor+3)^0,w,c
  2807  001D76  5A04               	subwfb	(___aomod@dividend+3)^0,f,c
  2808  001D78  500D               	movf	(___aomod@divisor+4)^0,w,c
  2809  001D7A  5A05               	subwfb	(___aomod@dividend+4)^0,f,c
  2810  001D7C  500E               	movf	(___aomod@divisor+5)^0,w,c
  2811  001D7E  5A06               	subwfb	(___aomod@dividend+5)^0,f,c
  2812  001D80  500F               	movf	(___aomod@divisor+6)^0,w,c
  2813  001D82  5A07               	subwfb	(___aomod@dividend+6)^0,f,c
  2814  001D84  5010               	movf	(___aomod@divisor+7)^0,w,c
  2815  001D86  5A08               	subwfb	(___aomod@dividend+7)^0,f,c
  2816  001D88                     l2145:
  2817  001D88  90D8               	bcf	status,0,c
  2818  001D8A  3210               	rrcf	(___aomod@divisor+7)^0,f,c
  2819  001D8C  320F               	rrcf	(___aomod@divisor+6)^0,f,c
  2820  001D8E  320E               	rrcf	(___aomod@divisor+5)^0,f,c
  2821  001D90  320D               	rrcf	(___aomod@divisor+4)^0,f,c
  2822  001D92  320C               	rrcf	(___aomod@divisor+3)^0,f,c
  2823  001D94  320B               	rrcf	(___aomod@divisor+2)^0,f,c
  2824  001D96  320A               	rrcf	(___aomod@divisor+1)^0,f,c
  2825  001D98  3209               	rrcf	___aomod@divisor^0,f,c
  2826  001D9A  2E11               	decfsz	___aomod@counter^0,f,c
  2827  001D9C  EF9D  F00E         	goto	l2141
  2828  001DA0                     l2149:
  2829  001DA0  5012               	movf	___aomod@sign^0,w,c
  2830  001DA2  B4D8               	btfsc	status,2,c
  2831  001DA4  EFD6  F00E         	goto	u1811
  2832  001DA8  EFD8  F00E         	goto	u1810
  2833  001DAC                     u1811:
  2834  001DAC  EFE8  F00E         	goto	l2153
  2835  001DB0                     u1810:
  2836  001DB0  1E08               	comf	(___aomod@dividend+7)^0,f,c
  2837  001DB2  1E07               	comf	(___aomod@dividend+6)^0,f,c
  2838  001DB4  1E06               	comf	(___aomod@dividend+5)^0,f,c
  2839  001DB6  1E05               	comf	(___aomod@dividend+4)^0,f,c
  2840  001DB8  1E04               	comf	(___aomod@dividend+3)^0,f,c
  2841  001DBA  1E03               	comf	(___aomod@dividend+2)^0,f,c
  2842  001DBC  1E02               	comf	(___aomod@dividend+1)^0,f,c
  2843  001DBE  6C01               	negf	___aomod@dividend^0,c
  2844  001DC0  0E00               	movlw	0
  2845  001DC2  2202               	addwfc	(___aomod@dividend+1)^0,f,c
  2846  001DC4  2203               	addwfc	(___aomod@dividend+2)^0,f,c
  2847  001DC6  2204               	addwfc	(___aomod@dividend+3)^0,f,c
  2848  001DC8  2205               	addwfc	(___aomod@dividend+4)^0,f,c
  2849  001DCA  2206               	addwfc	(___aomod@dividend+5)^0,f,c
  2850  001DCC  2207               	addwfc	(___aomod@dividend+6)^0,f,c
  2851  001DCE  2208               	addwfc	(___aomod@dividend+7)^0,f,c
  2852  001DD0                     l2153:
  2853  001DD0  C001  F001         	movff	___aomod@dividend,?___aomod
  2854  001DD4  C002  F002         	movff	___aomod@dividend+1,?___aomod+1
  2855  001DD8  C003  F003         	movff	___aomod@dividend+2,?___aomod+2
  2856  001DDC  C004  F004         	movff	___aomod@dividend+3,?___aomod+3
  2857  001DE0  C005  F005         	movff	___aomod@dividend+4,?___aomod+4
  2858  001DE4  C006  F006         	movff	___aomod@dividend+5,?___aomod+5
  2859  001DE8  C007  F007         	movff	___aomod@dividend+6,?___aomod+6
  2860  001DEC  C008  F008         	movff	___aomod@dividend+7,?___aomod+7
  2861  001DF0  0012               	return		;funcret
  2862  001DF2                     __end_of___aomod:
  2863                           	callstack 0
  2864                           
  2865 ;; *************** function ___aodiv *****************
  2866 ;; Defined at:
  2867 ;;		line 9 in file "C:\Program Files\Microchip\xc8\v2.31\pic\sources\c99\common\aodiv.c"
  2868 ;; Parameters:    Size  Location     Type
  2869 ;;  dividend        8    0[COMRAM] long long 
  2870 ;;  divisor         8    8[COMRAM] long long 
  2871 ;; Auto vars:     Size  Location     Type
  2872 ;;  quotient        8   18[COMRAM] long long 
  2873 ;;  sign            1   17[COMRAM] unsigned char 
  2874 ;;  counter         1   16[COMRAM] unsigned char 
  2875 ;; Return value:  Size  Location     Type
  2876 ;;                  8    0[COMRAM] long long 
  2877 ;; Registers used:
  2878 ;;		wreg, fsr2l, fsr2h, status,2, status,0
  2879 ;; Tracked objects:
  2880 ;;		On entry : 0/0
  2881 ;;		On exit  : 0/0
  2882 ;;		Unchanged: 0/0
  2883 ;; Data sizes:     COMRAM   BANK0   BANK1   BANK2   BANK3   BANK4   BANK5   BANK6   BANK7
  2884 ;;      Params:        16       0       0       0       0       0       0       0       0
  2885 ;;      Locals:        10       0       0       0       0       0       0       0       0
  2886 ;;      Temps:          0       0       0       0       0       0       0       0       0
  2887 ;;      Totals:        26       0       0       0       0       0       0       0       0
  2888 ;;Total ram usage:       26 bytes
  2889 ;; Hardware stack levels used:    1
  2890 ;; This function calls:
  2891 ;;		Nothing
  2892 ;; This function is called by:
  2893 ;;		_dtoa
  2894 ;; This function uses a non-reentrant model
  2895 ;;
  2896                           
  2897                           	psect	text14
  2898  001990                     __ptext14:
  2899                           	callstack 0
  2900  001990                     ___aodiv:
  2901                           	callstack 26
  2902  001990  0E00               	movlw	0
  2903  001992  6E12               	movwf	___aodiv@sign^0,c
  2904  001994  BE10               	btfsc	(___aodiv@divisor+7)^0,7,c
  2905  001996  EFD1  F00C         	goto	u1690
  2906  00199A  EFCF  F00C         	goto	u1691
  2907  00199E                     u1691:
  2908  00199E  EFE3  F00C         	goto	l2085
  2909  0019A2                     u1690:
  2910  0019A2  1E10               	comf	(___aodiv@divisor+7)^0,f,c
  2911  0019A4  1E0F               	comf	(___aodiv@divisor+6)^0,f,c
  2912  0019A6  1E0E               	comf	(___aodiv@divisor+5)^0,f,c
  2913  0019A8  1E0D               	comf	(___aodiv@divisor+4)^0,f,c
  2914  0019AA  1E0C               	comf	(___aodiv@divisor+3)^0,f,c
  2915  0019AC  1E0B               	comf	(___aodiv@divisor+2)^0,f,c
  2916  0019AE  1E0A               	comf	(___aodiv@divisor+1)^0,f,c
  2917  0019B0  6C09               	negf	___aodiv@divisor^0,c
  2918  0019B2  0E00               	movlw	0
  2919  0019B4  220A               	addwfc	(___aodiv@divisor+1)^0,f,c
  2920  0019B6  220B               	addwfc	(___aodiv@divisor+2)^0,f,c
  2921  0019B8  220C               	addwfc	(___aodiv@divisor+3)^0,f,c
  2922  0019BA  220D               	addwfc	(___aodiv@divisor+4)^0,f,c
  2923  0019BC  220E               	addwfc	(___aodiv@divisor+5)^0,f,c
  2924  0019BE  220F               	addwfc	(___aodiv@divisor+6)^0,f,c
  2925  0019C0  2210               	addwfc	(___aodiv@divisor+7)^0,f,c
  2926  0019C2  0E01               	movlw	1
  2927  0019C4  6E12               	movwf	___aodiv@sign^0,c
  2928  0019C6                     l2085:
  2929  0019C6  BE08               	btfsc	(___aodiv@dividend+7)^0,7,c
  2930  0019C8  EFEA  F00C         	goto	u1700
  2931  0019CC  EFE8  F00C         	goto	u1701
  2932  0019D0                     u1701:
  2933  0019D0  EFFC  F00C         	goto	l2091
  2934  0019D4                     u1700:
  2935  0019D4  1E08               	comf	(___aodiv@dividend+7)^0,f,c
  2936  0019D6  1E07               	comf	(___aodiv@dividend+6)^0,f,c
  2937  0019D8  1E06               	comf	(___aodiv@dividend+5)^0,f,c
  2938  0019DA  1E05               	comf	(___aodiv@dividend+4)^0,f,c
  2939  0019DC  1E04               	comf	(___aodiv@dividend+3)^0,f,c
  2940  0019DE  1E03               	comf	(___aodiv@dividend+2)^0,f,c
  2941  0019E0  1E02               	comf	(___aodiv@dividend+1)^0,f,c
  2942  0019E2  6C01               	negf	___aodiv@dividend^0,c
  2943  0019E4  0E00               	movlw	0
  2944  0019E6  2202               	addwfc	(___aodiv@dividend+1)^0,f,c
  2945  0019E8  2203               	addwfc	(___aodiv@dividend+2)^0,f,c
  2946  0019EA  2204               	addwfc	(___aodiv@dividend+3)^0,f,c
  2947  0019EC  2205               	addwfc	(___aodiv@dividend+4)^0,f,c
  2948  0019EE  2206               	addwfc	(___aodiv@dividend+5)^0,f,c
  2949  0019F0  2207               	addwfc	(___aodiv@dividend+6)^0,f,c
  2950  0019F2  2208               	addwfc	(___aodiv@dividend+7)^0,f,c
  2951  0019F4  0E01               	movlw	1
  2952  0019F6  1A12               	xorwf	___aodiv@sign^0,f,c
  2953  0019F8                     l2091:
  2954  0019F8  EE20  F013         	lfsr	2,___aodiv@quotient
  2955  0019FC  0E07               	movlw	7
  2956  0019FE                     u1711:
  2957  0019FE  6ADE               	clrf	postinc2,c
  2958  001A00  06E8               	decf	wreg,f,c
  2959  001A02  E2FD               	bc	u1711
  2960  001A04  5009               	movf	___aodiv@divisor^0,w,c
  2961  001A06  100A               	iorwf	(___aodiv@divisor+1)^0,w,c
  2962  001A08  100B               	iorwf	(___aodiv@divisor+2)^0,w,c
  2963  001A0A  100C               	iorwf	(___aodiv@divisor+3)^0,w,c
  2964  001A0C  100D               	iorwf	(___aodiv@divisor+4)^0,w,c
  2965  001A0E  100E               	iorwf	(___aodiv@divisor+5)^0,w,c
  2966  001A10  100F               	iorwf	(___aodiv@divisor+6)^0,w,c
  2967  001A12  1010               	iorwf	(___aodiv@divisor+7)^0,w,c
  2968  001A14  B4D8               	btfsc	status,2,c
  2969  001A16  EF0F  F00D         	goto	u1721
  2970  001A1A  EF11  F00D         	goto	u1720
  2971  001A1E                     u1721:
  2972  001A1E  EF63  F00D         	goto	l2113
  2973  001A22                     u1720:
  2974  001A22  0E01               	movlw	1
  2975  001A24  6E11               	movwf	___aodiv@counter^0,c
  2976  001A26  EF1F  F00D         	goto	l2099
  2977  001A2A                     l2097:
  2978  001A2A  90D8               	bcf	status,0,c
  2979  001A2C  3609               	rlcf	___aodiv@divisor^0,f,c
  2980  001A2E  360A               	rlcf	(___aodiv@divisor+1)^0,f,c
  2981  001A30  360B               	rlcf	(___aodiv@divisor+2)^0,f,c
  2982  001A32  360C               	rlcf	(___aodiv@divisor+3)^0,f,c
  2983  001A34  360D               	rlcf	(___aodiv@divisor+4)^0,f,c
  2984  001A36  360E               	rlcf	(___aodiv@divisor+5)^0,f,c
  2985  001A38  360F               	rlcf	(___aodiv@divisor+6)^0,f,c
  2986  001A3A  3610               	rlcf	(___aodiv@divisor+7)^0,f,c
  2987  001A3C  2A11               	incf	___aodiv@counter^0,f,c
  2988  001A3E                     l2099:
  2989  001A3E  AE10               	btfss	(___aodiv@divisor+7)^0,7,c
  2990  001A40  EF24  F00D         	goto	u1731
  2991  001A44  EF26  F00D         	goto	u1730
  2992  001A48                     u1731:
  2993  001A48  EF15  F00D         	goto	l2097
  2994  001A4C                     u1730:
  2995  001A4C                     l2101:
  2996  001A4C  90D8               	bcf	status,0,c
  2997  001A4E  3613               	rlcf	___aodiv@quotient^0,f,c
  2998  001A50  3614               	rlcf	(___aodiv@quotient+1)^0,f,c
  2999  001A52  3615               	rlcf	(___aodiv@quotient+2)^0,f,c
  3000  001A54  3616               	rlcf	(___aodiv@quotient+3)^0,f,c
  3001  001A56  3617               	rlcf	(___aodiv@quotient+4)^0,f,c
  3002  001A58  3618               	rlcf	(___aodiv@quotient+5)^0,f,c
  3003  001A5A  3619               	rlcf	(___aodiv@quotient+6)^0,f,c
  3004  001A5C  361A               	rlcf	(___aodiv@quotient+7)^0,f,c
  3005  001A5E  5009               	movf	___aodiv@divisor^0,w,c
  3006  001A60  5C01               	subwf	___aodiv@dividend^0,w,c
  3007  001A62  500A               	movf	(___aodiv@divisor+1)^0,w,c
  3008  001A64  5802               	subwfb	(___aodiv@dividend+1)^0,w,c
  3009  001A66  500B               	movf	(___aodiv@divisor+2)^0,w,c
  3010  001A68  5803               	subwfb	(___aodiv@dividend+2)^0,w,c
  3011  001A6A  500C               	movf	(___aodiv@divisor+3)^0,w,c
  3012  001A6C  5804               	subwfb	(___aodiv@dividend+3)^0,w,c
  3013  001A6E  500D               	movf	(___aodiv@divisor+4)^0,w,c
  3014  001A70  5805               	subwfb	(___aodiv@dividend+4)^0,w,c
  3015  001A72  500E               	movf	(___aodiv@divisor+5)^0,w,c
  3016  001A74  5806               	subwfb	(___aodiv@dividend+5)^0,w,c
  3017  001A76  500F               	movf	(___aodiv@divisor+6)^0,w,c
  3018  001A78  5807               	subwfb	(___aodiv@dividend+6)^0,w,c
  3019  001A7A  5010               	movf	(___aodiv@divisor+7)^0,w,c
  3020  001A7C  5808               	subwfb	(___aodiv@dividend+7)^0,w,c
  3021  001A7E  A0D8               	btfss	status,0,c
  3022  001A80  EF44  F00D         	goto	u1741
  3023  001A84  EF46  F00D         	goto	u1740
  3024  001A88                     u1741:
  3025  001A88  EF57  F00D         	goto	l2109
  3026  001A8C                     u1740:
  3027  001A8C  5009               	movf	___aodiv@divisor^0,w,c
  3028  001A8E  5E01               	subwf	___aodiv@dividend^0,f,c
  3029  001A90  500A               	movf	(___aodiv@divisor+1)^0,w,c
  3030  001A92  5A02               	subwfb	(___aodiv@dividend+1)^0,f,c
  3031  001A94  500B               	movf	(___aodiv@divisor+2)^0,w,c
  3032  001A96  5A03               	subwfb	(___aodiv@dividend+2)^0,f,c
  3033  001A98  500C               	movf	(___aodiv@divisor+3)^0,w,c
  3034  001A9A  5A04               	subwfb	(___aodiv@dividend+3)^0,f,c
  3035  001A9C  500D               	movf	(___aodiv@divisor+4)^0,w,c
  3036  001A9E  5A05               	subwfb	(___aodiv@dividend+4)^0,f,c
  3037  001AA0  500E               	movf	(___aodiv@divisor+5)^0,w,c
  3038  001AA2  5A06               	subwfb	(___aodiv@dividend+5)^0,f,c
  3039  001AA4  500F               	movf	(___aodiv@divisor+6)^0,w,c
  3040  001AA6  5A07               	subwfb	(___aodiv@dividend+6)^0,f,c
  3041  001AA8  5010               	movf	(___aodiv@divisor+7)^0,w,c
  3042  001AAA  5A08               	subwfb	(___aodiv@dividend+7)^0,f,c
  3043  001AAC  8013               	bsf	___aodiv@quotient^0,0,c
  3044  001AAE                     l2109:
  3045  001AAE  90D8               	bcf	status,0,c
  3046  001AB0  3210               	rrcf	(___aodiv@divisor+7)^0,f,c
  3047  001AB2  320F               	rrcf	(___aodiv@divisor+6)^0,f,c
  3048  001AB4  320E               	rrcf	(___aodiv@divisor+5)^0,f,c
  3049  001AB6  320D               	rrcf	(___aodiv@divisor+4)^0,f,c
  3050  001AB8  320C               	rrcf	(___aodiv@divisor+3)^0,f,c
  3051  001ABA  320B               	rrcf	(___aodiv@divisor+2)^0,f,c
  3052  001ABC  320A               	rrcf	(___aodiv@divisor+1)^0,f,c
  3053  001ABE  3209               	rrcf	___aodiv@divisor^0,f,c
  3054  001AC0  2E11               	decfsz	___aodiv@counter^0,f,c
  3055  001AC2  EF26  F00D         	goto	l2101
  3056  001AC6                     l2113:
  3057  001AC6  5012               	movf	___aodiv@sign^0,w,c
  3058  001AC8  B4D8               	btfsc	status,2,c
  3059  001ACA  EF69  F00D         	goto	u1751
  3060  001ACE  EF6B  F00D         	goto	u1750
  3061  001AD2                     u1751:
  3062  001AD2  EF7B  F00D         	goto	l2117
  3063  001AD6                     u1750:
  3064  001AD6  1E1A               	comf	(___aodiv@quotient+7)^0,f,c
  3065  001AD8  1E19               	comf	(___aodiv@quotient+6)^0,f,c
  3066  001ADA  1E18               	comf	(___aodiv@quotient+5)^0,f,c
  3067  001ADC  1E17               	comf	(___aodiv@quotient+4)^0,f,c
  3068  001ADE  1E16               	comf	(___aodiv@quotient+3)^0,f,c
  3069  001AE0  1E15               	comf	(___aodiv@quotient+2)^0,f,c
  3070  001AE2  1E14               	comf	(___aodiv@quotient+1)^0,f,c
  3071  001AE4  6C13               	negf	___aodiv@quotient^0,c
  3072  001AE6  0E00               	movlw	0
  3073  001AE8  2214               	addwfc	(___aodiv@quotient+1)^0,f,c
  3074  001AEA  2215               	addwfc	(___aodiv@quotient+2)^0,f,c
  3075  001AEC  2216               	addwfc	(___aodiv@quotient+3)^0,f,c
  3076  001AEE  2217               	addwfc	(___aodiv@quotient+4)^0,f,c
  3077  001AF0  2218               	addwfc	(___aodiv@quotient+5)^0,f,c
  3078  001AF2  2219               	addwfc	(___aodiv@quotient+6)^0,f,c
  3079  001AF4  221A               	addwfc	(___aodiv@quotient+7)^0,f,c
  3080  001AF6                     l2117:
  3081  001AF6  C013  F001         	movff	___aodiv@quotient,?___aodiv
  3082  001AFA  C014  F002         	movff	___aodiv@quotient+1,?___aodiv+1
  3083  001AFE  C015  F003         	movff	___aodiv@quotient+2,?___aodiv+2
  3084  001B02  C016  F004         	movff	___aodiv@quotient+3,?___aodiv+3
  3085  001B06  C017  F005         	movff	___aodiv@quotient+4,?___aodiv+4
  3086  001B0A  C018  F006         	movff	___aodiv@quotient+5,?___aodiv+5
  3087  001B0E  C019  F007         	movff	___aodiv@quotient+6,?___aodiv+6
  3088  001B12  C01A  F008         	movff	___aodiv@quotient+7,?___aodiv+7
  3089  001B16  0012               	return		;funcret
  3090  001B18                     __end_of___aodiv:
  3091                           	callstack 0
  3092                           
  3093 ;; *************** function _memset *****************
  3094 ;; Defined at:
  3095 ;;		line 4 in file "C:\Program Files\Microchip\xc8\v2.31\pic\sources\c99\common\memset.c"
  3096 ;; Parameters:    Size  Location     Type
  3097 ;;  dest            2    0[COMRAM] PTR void 
  3098 ;;		 -> main@value(10), 
  3099 ;;  c               2    2[COMRAM] int 
  3100 ;;  n               2    4[COMRAM] unsigned int 
  3101 ;; Auto vars:     Size  Location     Type
  3102 ;;  s               2   10[COMRAM] PTR unsigned char 
  3103 ;;		 -> main@value(10), 
  3104 ;;  k               2    8[COMRAM] unsigned int 
  3105 ;; Return value:  Size  Location     Type
  3106 ;;                  2    0[COMRAM] PTR void 
  3107 ;; Registers used:
  3108 ;;		wreg, fsr2l, fsr2h, status,2, status,0
  3109 ;; Tracked objects:
  3110 ;;		On entry : 0/0
  3111 ;;		On exit  : 0/0
  3112 ;;		Unchanged: 0/0
  3113 ;; Data sizes:     COMRAM   BANK0   BANK1   BANK2   BANK3   BANK4   BANK5   BANK6   BANK7
  3114 ;;      Params:         6       0       0       0       0       0       0       0       0
  3115 ;;      Locals:         4       0       0       0       0       0       0       0       0
  3116 ;;      Temps:          2       0       0       0       0       0       0       0       0
  3117 ;;      Totals:        12       0       0       0       0       0       0       0       0
  3118 ;;Total ram usage:       12 bytes
  3119 ;; Hardware stack levels used:    1
  3120 ;; This function calls:
  3121 ;;		Nothing
  3122 ;; This function is called by:
  3123 ;;		_main
  3124 ;; This function uses a non-reentrant model
  3125 ;;
  3126                           
  3127                           	psect	text15
  3128  001B18                     __ptext15:
  3129                           	callstack 0
  3130  001B18                     _memset:
  3131                           	callstack 30
  3132  001B18  C001  F00B         	movff	memset@dest,memset@s
  3133  001B1C  C002  F00C         	movff	memset@dest+1,memset@s+1
  3134  001B20  5005               	movf	memset@n^0,w,c
  3135  001B22  1006               	iorwf	(memset@n+1)^0,w,c
  3136  001B24  A4D8               	btfss	status,2,c
  3137  001B26  EF97  F00D         	goto	u3051
  3138  001B2A  EF99  F00D         	goto	u3050
  3139  001B2E                     u3051:
  3140  001B2E  EF9B  F00D         	goto	l2867
  3141  001B32                     u3050:
  3142  001B32  EF46  F00E         	goto	l909
  3143  001B36                     l2867:
  3144  001B36  C00B  FFD9         	movff	memset@s,fsr2l
  3145  001B3A  C00C  FFDA         	movff	memset@s+1,fsr2h
  3146  001B3E  C003  FFDF         	movff	memset@c,indf2
  3147  001B42  5005               	movf	memset@n^0,w,c
  3148  001B44  240B               	addwf	memset@s^0,w,c
  3149  001B46  6E07               	movwf	??_memset^0,c
  3150  001B48  5006               	movf	(memset@n+1)^0,w,c
  3151  001B4A  200C               	addwfc	(memset@s+1)^0,w,c
  3152  001B4C  6E08               	movwf	(??_memset+1)^0,c
  3153  001B4E  0EFF               	movlw	255
  3154  001B50  2407               	addwf	??_memset^0,w,c
  3155  001B52  6ED9               	movwf	fsr2l,c
  3156  001B54  0EFF               	movlw	255
  3157  001B56  2008               	addwfc	(??_memset+1)^0,w,c
  3158  001B58  6EDA               	movwf	fsr2h,c
  3159  001B5A  C003  FFDF         	movff	memset@c,indf2
  3160  001B5E  5006               	movf	(memset@n+1)^0,w,c
  3161  001B60  E107               	bnz	u3061
  3162  001B62  0E03               	movlw	3
  3163  001B64  5C05               	subwf	memset@n^0,w,c
  3164  001B66  B0D8               	btfsc	status,0,c
  3165  001B68  EFB8  F00D         	goto	u3061
  3166  001B6C  EFBA  F00D         	goto	u3060
  3167  001B70                     u3061:
  3168  001B70  EFBC  F00D         	goto	l2873
  3169  001B74                     u3060:
  3170  001B74  EF46  F00E         	goto	l909
  3171  001B78                     l2873:
  3172  001B78  EE20 F001          	lfsr	2,1
  3173  001B7C  500B               	movf	memset@s^0,w,c
  3174  001B7E  26D9               	addwf	fsr2l,f,c
  3175  001B80  500C               	movf	(memset@s+1)^0,w,c
  3176  001B82  22DA               	addwfc	fsr2h,f,c
  3177  001B84  C003  FFDF         	movff	memset@c,indf2
  3178  001B88  EE20 F002          	lfsr	2,2
  3179  001B8C  500B               	movf	memset@s^0,w,c
  3180  001B8E  26D9               	addwf	fsr2l,f,c
  3181  001B90  500C               	movf	(memset@s+1)^0,w,c
  3182  001B92  22DA               	addwfc	fsr2h,f,c
  3183  001B94  C003  FFDF         	movff	memset@c,indf2
  3184  001B98  5005               	movf	memset@n^0,w,c
  3185  001B9A  240B               	addwf	memset@s^0,w,c
  3186  001B9C  6E07               	movwf	??_memset^0,c
  3187  001B9E  5006               	movf	(memset@n+1)^0,w,c
  3188  001BA0  200C               	addwfc	(memset@s+1)^0,w,c
  3189  001BA2  6E08               	movwf	(??_memset+1)^0,c
  3190  001BA4  0EFE               	movlw	254
  3191  001BA6  2407               	addwf	??_memset^0,w,c
  3192  001BA8  6ED9               	movwf	fsr2l,c
  3193  001BAA  0EFF               	movlw	255
  3194  001BAC  2008               	addwfc	(??_memset+1)^0,w,c
  3195  001BAE  6EDA               	movwf	fsr2h,c
  3196  001BB0  C003  FFDF         	movff	memset@c,indf2
  3197  001BB4  5005               	movf	memset@n^0,w,c
  3198  001BB6  240B               	addwf	memset@s^0,w,c
  3199  001BB8  6E07               	movwf	??_memset^0,c
  3200  001BBA  5006               	movf	(memset@n+1)^0,w,c
  3201  001BBC  200C               	addwfc	(memset@s+1)^0,w,c
  3202  001BBE  6E08               	movwf	(??_memset+1)^0,c
  3203  001BC0  0EFD               	movlw	253
  3204  001BC2  2407               	addwf	??_memset^0,w,c
  3205  001BC4  6ED9               	movwf	fsr2l,c
  3206  001BC6  0EFF               	movlw	255
  3207  001BC8  2008               	addwfc	(??_memset+1)^0,w,c
  3208  001BCA  6EDA               	movwf	fsr2h,c
  3209  001BCC  C003  FFDF         	movff	memset@c,indf2
  3210  001BD0  5006               	movf	(memset@n+1)^0,w,c
  3211  001BD2  E107               	bnz	u3071
  3212  001BD4  0E07               	movlw	7
  3213  001BD6  5C05               	subwf	memset@n^0,w,c
  3214  001BD8  B0D8               	btfsc	status,0,c
  3215  001BDA  EFF1  F00D         	goto	u3071
  3216  001BDE  EFF3  F00D         	goto	u3070
  3217  001BE2                     u3071:
  3218  001BE2  EFF5  F00D         	goto	l2879
  3219  001BE6                     u3070:
  3220  001BE6  EF46  F00E         	goto	l909
  3221  001BEA                     l2879:
  3222  001BEA  EE20 F003          	lfsr	2,3
  3223  001BEE  500B               	movf	memset@s^0,w,c
  3224  001BF0  26D9               	addwf	fsr2l,f,c
  3225  001BF2  500C               	movf	(memset@s+1)^0,w,c
  3226  001BF4  22DA               	addwfc	fsr2h,f,c
  3227  001BF6  C003  FFDF         	movff	memset@c,indf2
  3228  001BFA  5005               	movf	memset@n^0,w,c
  3229  001BFC  240B               	addwf	memset@s^0,w,c
  3230  001BFE  6E07               	movwf	??_memset^0,c
  3231  001C00  5006               	movf	(memset@n+1)^0,w,c
  3232  001C02  200C               	addwfc	(memset@s+1)^0,w,c
  3233  001C04  6E08               	movwf	(??_memset+1)^0,c
  3234  001C06  0EFC               	movlw	252
  3235  001C08  2407               	addwf	??_memset^0,w,c
  3236  001C0A  6ED9               	movwf	fsr2l,c
  3237  001C0C  0EFF               	movlw	255
  3238  001C0E  2008               	addwfc	(??_memset+1)^0,w,c
  3239  001C10  6EDA               	movwf	fsr2h,c
  3240  001C12  C003  FFDF         	movff	memset@c,indf2
  3241  001C16  5006               	movf	(memset@n+1)^0,w,c
  3242  001C18  E107               	bnz	u3081
  3243  001C1A  0E09               	movlw	9
  3244  001C1C  5C05               	subwf	memset@n^0,w,c
  3245  001C1E  B0D8               	btfsc	status,0,c
  3246  001C20  EF14  F00E         	goto	u3081
  3247  001C24  EF16  F00E         	goto	u3080
  3248  001C28                     u3081:
  3249  001C28  EF18  F00E         	goto	l2885
  3250  001C2C                     u3080:
  3251  001C2C  EF46  F00E         	goto	l909
  3252  001C30                     l2885:
  3253  001C30  C00B  F007         	movff	memset@s,??_memset
  3254  001C34  C00C  F008         	movff	memset@s+1,??_memset+1
  3255  001C38  1E07               	comf	??_memset^0,f,c
  3256  001C3A  1E08               	comf	(??_memset+1)^0,f,c
  3257  001C3C  4A07               	infsnz	??_memset^0,f,c
  3258  001C3E  2A08               	incf	(??_memset+1)^0,f,c
  3259  001C40  0E03               	movlw	3
  3260  001C42  1407               	andwf	??_memset^0,w,c
  3261  001C44  6E09               	movwf	memset@k^0,c
  3262  001C46  6A0A               	clrf	(memset@k+1)^0,c
  3263  001C48  5009               	movf	memset@k^0,w,c
  3264  001C4A  260B               	addwf	memset@s^0,f,c
  3265  001C4C  500A               	movf	(memset@k+1)^0,w,c
  3266  001C4E  220C               	addwfc	(memset@s+1)^0,f,c
  3267  001C50  5009               	movf	memset@k^0,w,c
  3268  001C52  5E05               	subwf	memset@n^0,f,c
  3269  001C54  500A               	movf	(memset@k+1)^0,w,c
  3270  001C56  5A06               	subwfb	(memset@n+1)^0,f,c
  3271  001C58  0EFC               	movlw	252
  3272  001C5A  1605               	andwf	memset@n^0,f,c
  3273  001C5C  0EFF               	movlw	255
  3274  001C5E  1606               	andwf	(memset@n+1)^0,f,c
  3275  001C60  EF3D  F00E         	goto	l2893
  3276  001C64                     l2887:
  3277  001C64  C00B  FFD9         	movff	memset@s,fsr2l
  3278  001C68  C00C  FFDA         	movff	memset@s+1,fsr2h
  3279  001C6C  C003  FFDF         	movff	memset@c,indf2
  3280  001C70  0605               	decf	memset@n^0,f,c
  3281  001C72  A0D8               	btfss	status,0,c
  3282  001C74  0606               	decf	(memset@n+1)^0,f,c
  3283  001C76  4A0B               	infsnz	memset@s^0,f,c
  3284  001C78  2A0C               	incf	(memset@s+1)^0,f,c
  3285  001C7A                     l2893:
  3286  001C7A  5005               	movf	memset@n^0,w,c
  3287  001C7C  1006               	iorwf	(memset@n+1)^0,w,c
  3288  001C7E  A4D8               	btfss	status,2,c
  3289  001C80  EF44  F00E         	goto	u3091
  3290  001C84  EF46  F00E         	goto	u3090
  3291  001C88                     u3091:
  3292  001C88  EF32  F00E         	goto	l2887
  3293  001C8C                     u3090:
  3294  001C8C                     l909:
  3295  001C8C  0012               	return		;funcret
  3296  001C8E                     __end_of_memset:
  3297                           	callstack 0
  3298                           
  3299 ;; *************** function _USART_SendString *****************
  3300 ;; Defined at:
  3301 ;;		line 40 in file "USART_Source_File.c"
  3302 ;; Parameters:    Size  Location     Type
  3303 ;;  out             2    1[COMRAM] PTR const unsigned char 
  3304 ;;		 -> val_aux(50), 
  3305 ;; Auto vars:     Size  Location     Type
  3306 ;;		None
  3307 ;; Return value:  Size  Location     Type
  3308 ;;                  1    wreg      void 
  3309 ;; Registers used:
  3310 ;;		wreg, fsr2l, fsr2h, status,2, status,0, cstack
  3311 ;; Tracked objects:
  3312 ;;		On entry : 0/0
  3313 ;;		On exit  : 0/0
  3314 ;;		Unchanged: 0/0
  3315 ;; Data sizes:     COMRAM   BANK0   BANK1   BANK2   BANK3   BANK4   BANK5   BANK6   BANK7
  3316 ;;      Params:         2       0       0       0       0       0       0       0       0
  3317 ;;      Locals:         0       0       0       0       0       0       0       0       0
  3318 ;;      Temps:          0       0       0       0       0       0       0       0       0
  3319 ;;      Totals:         2       0       0       0       0       0       0       0       0
  3320 ;;Total ram usage:        2 bytes
  3321 ;; Hardware stack levels used:    1
  3322 ;; Hardware stack levels required when called:    1
  3323 ;; This function calls:
  3324 ;;		_USART_TxChar
  3325 ;; This function is called by:
  3326 ;;		_main
  3327 ;; This function uses a non-reentrant model
  3328 ;;
  3329                           
  3330                           	psect	text16
  3331  002506                     __ptext16:
  3332                           	callstack 0
  3333  002506                     _USART_SendString:
  3334                           	callstack 29
  3335  002506                     
  3336                           ;USART_Source_File.c: 40: void USART_SendString(const char *out);USART_Source_File.c: 41
      +                          : {;USART_Source_File.c: 42:    while(*out!='\0')
  3337  002506  EF8E  F012         	goto	l2927
  3338  00250A                     l2923:
  3339                           
  3340                           ;USART_Source_File.c: 43:    {;USART_Source_File.c: 44:         USART_TxChar(*out);
  3341  00250A  C002  FFD9         	movff	USART_SendString@out,fsr2l
  3342  00250E  C003  FFDA         	movff	USART_SendString@out+1,fsr2h
  3343  002512  50DF               	movf	indf2,w,c
  3344  002514  EC03  F013         	call	_USART_TxChar
  3345  002518                     
  3346                           ;USART_Source_File.c: 45:         out++;
  3347  002518  4A02               	infsnz	USART_SendString@out^0,f,c
  3348  00251A  2A03               	incf	(USART_SendString@out+1)^0,f,c
  3349  00251C                     l2927:
  3350                           
  3351                           ;USART_Source_File.c: 42:    while(*out!='\0')
  3352  00251C  C002  FFD9         	movff	USART_SendString@out,fsr2l
  3353  002520  C003  FFDA         	movff	USART_SendString@out+1,fsr2h
  3354  002524  50DF               	movf	indf2,w,c
  3355  002526  A4D8               	btfss	status,2,c
  3356  002528  EF98  F012         	goto	u3131
  3357  00252C  EF9A  F012         	goto	u3130
  3358  002530                     u3131:
  3359  002530  EF85  F012         	goto	l2923
  3360  002534                     u3130:
  3361  002534  0012               	return		;funcret
  3362  002536                     __end_of_USART_SendString:
  3363                           	callstack 0
  3364                           
  3365 ;; *************** function _USART_TxChar *****************
  3366 ;; Defined at:
  3367 ;;		line 19 in file "USART_Source_File.c"
  3368 ;; Parameters:    Size  Location     Type
  3369 ;;  out             1    wreg     unsigned char 
  3370 ;; Auto vars:     Size  Location     Type
  3371 ;;  out             1    0[COMRAM] unsigned char 
  3372 ;; Return value:  Size  Location     Type
  3373 ;;                  1    wreg      void 
  3374 ;; Registers used:
  3375 ;;		wreg
  3376 ;; Tracked objects:
  3377 ;;		On entry : 0/0
  3378 ;;		On exit  : 0/0
  3379 ;;		Unchanged: 0/0
  3380 ;; Data sizes:     COMRAM   BANK0   BANK1   BANK2   BANK3   BANK4   BANK5   BANK6   BANK7
  3381 ;;      Params:         0       0       0       0       0       0       0       0       0
  3382 ;;      Locals:         1       0       0       0       0       0       0       0       0
  3383 ;;      Temps:          0       0       0       0       0       0       0       0       0
  3384 ;;      Totals:         1       0       0       0       0       0       0       0       0
  3385 ;;Total ram usage:        1 bytes
  3386 ;; Hardware stack levels used:    1
  3387 ;; This function calls:
  3388 ;;		Nothing
  3389 ;; This function is called by:
  3390 ;;		_USART_SendString
  3391 ;; This function uses a non-reentrant model
  3392 ;;
  3393                           
  3394                           	psect	text17
  3395  002606                     __ptext17:
  3396                           	callstack 0
  3397  002606                     _USART_TxChar:
  3398                           	callstack 29
  3399                           
  3400                           ;incstack = 0
  3401                           ;USART_TxChar@out stored from wreg
  3402  002606  6E01               	movwf	USART_TxChar@out^0,c
  3403  002608                     l215:
  3404  002608  A89E               	btfss	3998,4,c	;volatile
  3405  00260A  EF09  F013         	goto	u2131
  3406  00260E  EF0B  F013         	goto	u2130
  3407  002612                     u2131:
  3408  002612  EF04  F013         	goto	l215
  3409  002616                     u2130:
  3410  002616                     
  3411                           ;USART_Source_File.c: 22:         TXREG=out;
  3412  002616  C001  FFAD         	movff	USART_TxChar@out,4013	;volatile
  3413  00261A  0012               	return		;funcret
  3414  00261C                     __end_of_USART_TxChar:
  3415                           	callstack 0
  3416                           
  3417 ;; *************** function _USART_Init *****************
  3418 ;; Defined at:
  3419 ;;		line 8 in file "USART_Source_File.c"
  3420 ;; Parameters:    Size  Location     Type
  3421 ;;  baud_rate       4   55[COMRAM] long 
  3422 ;; Auto vars:     Size  Location     Type
  3423 ;;  temp            4   59[COMRAM] float 
  3424 ;; Return value:  Size  Location     Type
  3425 ;;                  1    wreg      void 
  3426 ;; Registers used:
  3427 ;;		wreg, status,2, status,0, cstack
  3428 ;; Tracked objects:
  3429 ;;		On entry : 0/0
  3430 ;;		On exit  : 0/0
  3431 ;;		Unchanged: 0/0
  3432 ;; Data sizes:     COMRAM   BANK0   BANK1   BANK2   BANK3   BANK4   BANK5   BANK6   BANK7
  3433 ;;      Params:         4       0       0       0       0       0       0       0       0
  3434 ;;      Locals:         4       0       0       0       0       0       0       0       0
  3435 ;;      Temps:          0       0       0       0       0       0       0       0       0
  3436 ;;      Totals:         8       0       0       0       0       0       0       0       0
  3437 ;;Total ram usage:        8 bytes
  3438 ;; Hardware stack levels used:    1
  3439 ;; Hardware stack levels required when called:    1
  3440 ;; This function calls:
  3441 ;;		___fladd
  3442 ;;		___fldiv
  3443 ;;		___fltol
  3444 ;;		___xxtofl
  3445 ;; This function is called by:
  3446 ;;		_main
  3447 ;; This function uses a non-reentrant model
  3448 ;;
  3449                           
  3450                           	psect	text18
  3451  002088                     __ptext18:
  3452                           	callstack 0
  3453  002088                     _USART_Init:
  3454                           	callstack 29
  3455  002088                     
  3456                           ;USART_Source_File.c: 8: void USART_Init(long baud_rate);USART_Source_File.c: 9: {;USART
      +                          _Source_File.c: 10:     float temp;;USART_Source_File.c: 11:     TRISC6=0;
  3457  002088  9C94               	bcf	3988,6,c	;volatile
  3458                           
  3459                           ;USART_Source_File.c: 12:     TRISC7=1;
  3460  00208A  8E94               	bsf	3988,7,c	;volatile
  3461  00208C                     
  3462                           ;USART_Source_File.c: 13:     temp=(((float)(8000000/64)/(float)baud_rate)-1);
  3463  00208C  C038  F001         	movff	USART_Init@baud_rate,___xxtofl@val
  3464  002090  C039  F002         	movff	USART_Init@baud_rate+1,___xxtofl@val+1
  3465  002094  C03A  F003         	movff	USART_Init@baud_rate+2,___xxtofl@val+2
  3466  002098  C03B  F004         	movff	USART_Init@baud_rate+3,___xxtofl@val+3
  3467  00209C  0E01               	movlw	1
  3468  00209E  ECEE  F00B         	call	___xxtofl
  3469  0020A2  C001  F013         	movff	?___xxtofl,___fldiv@a
  3470  0020A6  C002  F014         	movff	?___xxtofl+1,___fldiv@a+1
  3471  0020AA  C003  F015         	movff	?___xxtofl+2,___fldiv@a+2
  3472  0020AE  C004  F016         	movff	?___xxtofl+3,___fldiv@a+3
  3473  0020B2  0E00               	movlw	0
  3474  0020B4  6E0F               	movwf	___fldiv@b^0,c
  3475  0020B6  0E24               	movlw	36
  3476  0020B8  6E10               	movwf	(___fldiv@b+1)^0,c
  3477  0020BA  0EF4               	movlw	244
  3478  0020BC  6E11               	movwf	(___fldiv@b+2)^0,c
  3479  0020BE  0E47               	movlw	71
  3480  0020C0  6E12               	movwf	(___fldiv@b+3)^0,c
  3481  0020C2  EC78  F006         	call	___fldiv	;wreg free
  3482  0020C6  C00F  F028         	movff	?___fldiv,___fladd@b
  3483  0020CA  C010  F029         	movff	?___fldiv+1,___fladd@b+1
  3484  0020CE  C011  F02A         	movff	?___fldiv+2,___fladd@b+2
  3485  0020D2  C012  F02B         	movff	?___fldiv+3,___fladd@b+3
  3486  0020D6  0E00               	movlw	0
  3487  0020D8  6E2C               	movwf	___fladd@a^0,c
  3488  0020DA  0E00               	movlw	0
  3489  0020DC  6E2D               	movwf	(___fladd@a+1)^0,c
  3490  0020DE  0E80               	movlw	128
  3491  0020E0  6E2E               	movwf	(___fladd@a+2)^0,c
  3492  0020E2  0EBF               	movlw	191
  3493  0020E4  6E2F               	movwf	(___fladd@a+3)^0,c
  3494  0020E6  EC18  F004         	call	___fladd	;wreg free
  3495  0020EA  C028  F03C         	movff	?___fladd,USART_Init@temp
  3496  0020EE  C029  F03D         	movff	?___fladd+1,USART_Init@temp+1
  3497  0020F2  C02A  F03E         	movff	?___fladd+2,USART_Init@temp+2
  3498  0020F6  C02B  F03F         	movff	?___fladd+3,USART_Init@temp+3
  3499                           
  3500                           ;USART_Source_File.c: 14:     SPBRG=(int)temp;
  3501  0020FA  C03C  F001         	movff	USART_Init@temp,___fltol@f1
  3502  0020FE  C03D  F002         	movff	USART_Init@temp+1,___fltol@f1+1
  3503  002102  C03E  F003         	movff	USART_Init@temp+2,___fltol@f1+2
  3504  002106  C03F  F004         	movff	USART_Init@temp+3,___fltol@f1+3
  3505  00210A  ECF9  F00E         	call	___fltol	;wreg free
  3506  00210E  5001               	movf	?___fltol^0,w,c
  3507  002110  6EAF               	movwf	175,c	;volatile
  3508  002112                     
  3509                           ;USART_Source_File.c: 15:     TXSTA=0x20;
  3510  002112  0E20               	movlw	32
  3511  002114  6EAC               	movwf	172,c	;volatile
  3512  002116                     
  3513                           ;USART_Source_File.c: 16:     RCSTA=0x90;
  3514  002116  0E90               	movlw	144
  3515  002118  6EAB               	movwf	171,c	;volatile
  3516  00211A  0012               	return		;funcret
  3517  00211C                     __end_of_USART_Init:
  3518                           	callstack 0
  3519                           
  3520 ;; *************** function ___xxtofl *****************
  3521 ;; Defined at:
  3522 ;;		line 10 in file "C:\Program Files\Microchip\xc8\v2.31\pic\sources\c99\common\xxtofl.c"
  3523 ;; Parameters:    Size  Location     Type
  3524 ;;  sign            1    wreg     unsigned char 
  3525 ;;  val             4    0[COMRAM] long 
  3526 ;; Auto vars:     Size  Location     Type
  3527 ;;  sign            1    8[COMRAM] unsigned char 
  3528 ;;  arg             4   10[COMRAM] unsigned long 
  3529 ;;  exp             1    9[COMRAM] unsigned char 
  3530 ;; Return value:  Size  Location     Type
  3531 ;;                  4    0[COMRAM] unsigned char 
  3532 ;; Registers used:
  3533 ;;		wreg, status,2, status,0
  3534 ;; Tracked objects:
  3535 ;;		On entry : 0/0
  3536 ;;		On exit  : 0/0
  3537 ;;		Unchanged: 0/0
  3538 ;; Data sizes:     COMRAM   BANK0   BANK1   BANK2   BANK3   BANK4   BANK5   BANK6   BANK7
  3539 ;;      Params:         4       0       0       0       0       0       0       0       0
  3540 ;;      Locals:         6       0       0       0       0       0       0       0       0
  3541 ;;      Temps:          4       0       0       0       0       0       0       0       0
  3542 ;;      Totals:        14       0       0       0       0       0       0       0       0
  3543 ;;Total ram usage:       14 bytes
  3544 ;; Hardware stack levels used:    1
  3545 ;; This function calls:
  3546 ;;		Nothing
  3547 ;; This function is called by:
  3548 ;;		_USART_Init
  3549 ;; This function uses a non-reentrant model
  3550 ;;
  3551                           
  3552                           	psect	text19
  3553  0017DC                     __ptext19:
  3554                           	callstack 0
  3555  0017DC                     ___xxtofl:
  3556                           	callstack 29
  3557                           
  3558                           ;incstack = 0
  3559                           ;___xxtofl@sign stored from wreg
  3560  0017DC  6E09               	movwf	___xxtofl@sign^0,c
  3561  0017DE  5009               	movf	___xxtofl@sign^0,w,c
  3562  0017E0  B4D8               	btfsc	status,2,c
  3563  0017E2  EFF5  F00B         	goto	u2831
  3564  0017E6  EFF7  F00B         	goto	u2830
  3565  0017EA                     u2831:
  3566  0017EA  EF19  F00C         	goto	l889
  3567  0017EE                     u2830:
  3568  0017EE  BE04               	btfsc	(___xxtofl@val+3)^0,7,c
  3569  0017F0  EFFE  F00B         	goto	u2840
  3570  0017F4  EFFC  F00B         	goto	u2841
  3571  0017F8                     u2841:
  3572  0017F8  EF19  F00C         	goto	l889
  3573  0017FC                     u2840:
  3574  0017FC  C001  F005         	movff	___xxtofl@val,??___xxtofl
  3575  001800  C002  F006         	movff	___xxtofl@val+1,??___xxtofl+1
  3576  001804  C003  F007         	movff	___xxtofl@val+2,??___xxtofl+2
  3577  001808  C004  F008         	movff	___xxtofl@val+3,??___xxtofl+3
  3578  00180C  1E05               	comf	??___xxtofl^0,f,c
  3579  00180E  1E06               	comf	(??___xxtofl+1)^0,f,c
  3580  001810  1E07               	comf	(??___xxtofl+2)^0,f,c
  3581  001812  1E08               	comf	(??___xxtofl+3)^0,f,c
  3582  001814  2A05               	incf	??___xxtofl^0,f,c
  3583  001816  0E00               	movlw	0
  3584  001818  2206               	addwfc	(??___xxtofl+1)^0,f,c
  3585  00181A  2207               	addwfc	(??___xxtofl+2)^0,f,c
  3586  00181C  2208               	addwfc	(??___xxtofl+3)^0,f,c
  3587  00181E  C005  F00B         	movff	??___xxtofl,___xxtofl@arg
  3588  001822  C006  F00C         	movff	??___xxtofl+1,___xxtofl@arg+1
  3589  001826  C007  F00D         	movff	??___xxtofl+2,___xxtofl@arg+2
  3590  00182A  C008  F00E         	movff	??___xxtofl+3,___xxtofl@arg+3
  3591  00182E  EF21  F00C         	goto	l2737
  3592  001832                     l889:
  3593  001832  C001  F00B         	movff	___xxtofl@val,___xxtofl@arg
  3594  001836  C002  F00C         	movff	___xxtofl@val+1,___xxtofl@arg+1
  3595  00183A  C003  F00D         	movff	___xxtofl@val+2,___xxtofl@arg+2
  3596  00183E  C004  F00E         	movff	___xxtofl@val+3,___xxtofl@arg+3
  3597  001842                     l2737:
  3598  001842  5001               	movf	___xxtofl@val^0,w,c
  3599  001844  1002               	iorwf	(___xxtofl@val+1)^0,w,c
  3600  001846  1003               	iorwf	(___xxtofl@val+2)^0,w,c
  3601  001848  1004               	iorwf	(___xxtofl@val+3)^0,w,c
  3602  00184A  A4D8               	btfss	status,2,c
  3603  00184C  EF2A  F00C         	goto	u2851
  3604  001850  EF2C  F00C         	goto	u2850
  3605  001854                     u2851:
  3606  001854  EF36  F00C         	goto	l2743
  3607  001858                     u2850:
  3608  001858  0E00               	movlw	0
  3609  00185A  6E01               	movwf	?___xxtofl^0,c
  3610  00185C  0E00               	movlw	0
  3611  00185E  6E02               	movwf	(?___xxtofl+1)^0,c
  3612  001860  0E00               	movlw	0
  3613  001862  6E03               	movwf	(?___xxtofl+2)^0,c
  3614  001864  0E00               	movlw	0
  3615  001866  6E04               	movwf	(?___xxtofl+3)^0,c
  3616  001868  EFC7  F00C         	goto	l892
  3617  00186C                     l2743:
  3618  00186C  0E96               	movlw	150
  3619  00186E  6E0A               	movwf	___xxtofl@exp^0,c
  3620  001870  EF40  F00C         	goto	l2747
  3621  001874                     l2745:
  3622  001874  2A0A               	incf	___xxtofl@exp^0,f,c
  3623  001876  90D8               	bcf	status,0,c
  3624  001878  320E               	rrcf	(___xxtofl@arg+3)^0,f,c
  3625  00187A  320D               	rrcf	(___xxtofl@arg+2)^0,f,c
  3626  00187C  320C               	rrcf	(___xxtofl@arg+1)^0,f,c
  3627  00187E  320B               	rrcf	___xxtofl@arg^0,f,c
  3628  001880                     l2747:
  3629  001880  0E00               	movlw	0
  3630  001882  140B               	andwf	___xxtofl@arg^0,w,c
  3631  001884  6E05               	movwf	??___xxtofl^0,c
  3632  001886  0E00               	movlw	0
  3633  001888  140C               	andwf	(___xxtofl@arg+1)^0,w,c
  3634  00188A  6E06               	movwf	(??___xxtofl+1)^0,c
  3635  00188C  0E00               	movlw	0
  3636  00188E  140D               	andwf	(___xxtofl@arg+2)^0,w,c
  3637  001890  6E07               	movwf	(??___xxtofl+2)^0,c
  3638  001892  0EFE               	movlw	254
  3639  001894  140E               	andwf	(___xxtofl@arg+3)^0,w,c
  3640  001896  6E08               	movwf	(??___xxtofl+3)^0,c
  3641  001898  5005               	movf	??___xxtofl^0,w,c
  3642  00189A  1006               	iorwf	(??___xxtofl+1)^0,w,c
  3643  00189C  1007               	iorwf	(??___xxtofl+2)^0,w,c
  3644  00189E  1008               	iorwf	(??___xxtofl+3)^0,w,c
  3645  0018A0  A4D8               	btfss	status,2,c
  3646  0018A2  EF55  F00C         	goto	u2861
  3647  0018A6  EF57  F00C         	goto	u2860
  3648  0018AA                     u2861:
  3649  0018AA  EF3A  F00C         	goto	l2745
  3650  0018AE                     u2860:
  3651  0018AE  EF65  F00C         	goto	l896
  3652  0018B2                     l2749:
  3653  0018B2  2A0A               	incf	___xxtofl@exp^0,f,c
  3654  0018B4  0E01               	movlw	1
  3655  0018B6  260B               	addwf	___xxtofl@arg^0,f,c
  3656  0018B8  0E00               	movlw	0
  3657  0018BA  220C               	addwfc	(___xxtofl@arg+1)^0,f,c
  3658  0018BC  220D               	addwfc	(___xxtofl@arg+2)^0,f,c
  3659  0018BE  220E               	addwfc	(___xxtofl@arg+3)^0,f,c
  3660  0018C0  90D8               	bcf	status,0,c
  3661  0018C2  320E               	rrcf	(___xxtofl@arg+3)^0,f,c
  3662  0018C4  320D               	rrcf	(___xxtofl@arg+2)^0,f,c
  3663  0018C6  320C               	rrcf	(___xxtofl@arg+1)^0,f,c
  3664  0018C8  320B               	rrcf	___xxtofl@arg^0,f,c
  3665  0018CA                     l896:
  3666  0018CA  0E00               	movlw	0
  3667  0018CC  140B               	andwf	___xxtofl@arg^0,w,c
  3668  0018CE  6E05               	movwf	??___xxtofl^0,c
  3669  0018D0  0E00               	movlw	0
  3670  0018D2  140C               	andwf	(___xxtofl@arg+1)^0,w,c
  3671  0018D4  6E06               	movwf	(??___xxtofl+1)^0,c
  3672  0018D6  0E00               	movlw	0
  3673  0018D8  140D               	andwf	(___xxtofl@arg+2)^0,w,c
  3674  0018DA  6E07               	movwf	(??___xxtofl+2)^0,c
  3675  0018DC  0EFF               	movlw	255
  3676  0018DE  140E               	andwf	(___xxtofl@arg+3)^0,w,c
  3677  0018E0  6E08               	movwf	(??___xxtofl+3)^0,c
  3678  0018E2  5005               	movf	??___xxtofl^0,w,c
  3679  0018E4  1006               	iorwf	(??___xxtofl+1)^0,w,c
  3680  0018E6  1007               	iorwf	(??___xxtofl+2)^0,w,c
  3681  0018E8  1008               	iorwf	(??___xxtofl+3)^0,w,c
  3682  0018EA  A4D8               	btfss	status,2,c
  3683  0018EC  EF7A  F00C         	goto	u2871
  3684  0018F0  EF7C  F00C         	goto	u2870
  3685  0018F4                     u2871:
  3686  0018F4  EF59  F00C         	goto	l2749
  3687  0018F8                     u2870:
  3688  0018F8  EF84  F00C         	goto	l2757
  3689  0018FC                     l2755:
  3690  0018FC  060A               	decf	___xxtofl@exp^0,f,c
  3691  0018FE  90D8               	bcf	status,0,c
  3692  001900  360B               	rlcf	___xxtofl@arg^0,f,c
  3693  001902  360C               	rlcf	(___xxtofl@arg+1)^0,f,c
  3694  001904  360D               	rlcf	(___xxtofl@arg+2)^0,f,c
  3695  001906  360E               	rlcf	(___xxtofl@arg+3)^0,f,c
  3696  001908                     l2757:
  3697  001908  BE0D               	btfsc	(___xxtofl@arg+2)^0,7,c
  3698  00190A  EF89  F00C         	goto	u2881
  3699  00190E  EF8B  F00C         	goto	u2880
  3700  001912                     u2881:
  3701  001912  EF93  F00C         	goto	l903
  3702  001916                     u2880:
  3703  001916  0E02               	movlw	2
  3704  001918  600A               	cpfslt	___xxtofl@exp^0,c
  3705  00191A  EF91  F00C         	goto	u2891
  3706  00191E  EF93  F00C         	goto	u2890
  3707  001922                     u2891:
  3708  001922  EF7E  F00C         	goto	l2755
  3709  001926                     u2890:
  3710  001926                     l903:
  3711  001926  B00A               	btfsc	___xxtofl@exp^0,0,c
  3712  001928  EF98  F00C         	goto	u2901
  3713  00192C  EF9A  F00C         	goto	u2900
  3714  001930                     u2901:
  3715  001930  EF9B  F00C         	goto	l2763
  3716  001934                     u2900:
  3717  001934  9E0D               	bcf	(___xxtofl@arg+2)^0,7,c
  3718  001936                     l2763:
  3719  001936  90D8               	bcf	status,0,c
  3720  001938  320A               	rrcf	___xxtofl@exp^0,f,c
  3721  00193A  C00A  F005         	movff	___xxtofl@exp,??___xxtofl
  3722  00193E  6A06               	clrf	(??___xxtofl+1)^0,c
  3723  001940  6A07               	clrf	(??___xxtofl+2)^0,c
  3724  001942  6A08               	clrf	(??___xxtofl+3)^0,c
  3725  001944  C005  F008         	movff	??___xxtofl,??___xxtofl+3
  3726  001948  6A07               	clrf	(??___xxtofl+2)^0,c
  3727  00194A  6A06               	clrf	(??___xxtofl+1)^0,c
  3728  00194C  6A05               	clrf	??___xxtofl^0,c
  3729  00194E  5005               	movf	??___xxtofl^0,w,c
  3730  001950  120B               	iorwf	___xxtofl@arg^0,f,c
  3731  001952  5006               	movf	(??___xxtofl+1)^0,w,c
  3732  001954  120C               	iorwf	(___xxtofl@arg+1)^0,f,c
  3733  001956  5007               	movf	(??___xxtofl+2)^0,w,c
  3734  001958  120D               	iorwf	(___xxtofl@arg+2)^0,f,c
  3735  00195A  5008               	movf	(??___xxtofl+3)^0,w,c
  3736  00195C  120E               	iorwf	(___xxtofl@arg+3)^0,f,c
  3737  00195E  5009               	movf	___xxtofl@sign^0,w,c
  3738  001960  B4D8               	btfsc	status,2,c
  3739  001962  EFB5  F00C         	goto	u2911
  3740  001966  EFB7  F00C         	goto	u2910
  3741  00196A                     u2911:
  3742  00196A  EFBF  F00C         	goto	l2773
  3743  00196E                     u2910:
  3744  00196E  BE04               	btfsc	(___xxtofl@val+3)^0,7,c
  3745  001970  EFBE  F00C         	goto	u2920
  3746  001974  EFBC  F00C         	goto	u2921
  3747  001978                     u2921:
  3748  001978  EFBF  F00C         	goto	l2773
  3749  00197C                     u2920:
  3750  00197C  8E0E               	bsf	(___xxtofl@arg+3)^0,7,c
  3751  00197E                     l2773:
  3752  00197E  C00B  F001         	movff	___xxtofl@arg,?___xxtofl
  3753  001982  C00C  F002         	movff	___xxtofl@arg+1,?___xxtofl+1
  3754  001986  C00D  F003         	movff	___xxtofl@arg+2,?___xxtofl+2
  3755  00198A  C00E  F004         	movff	___xxtofl@arg+3,?___xxtofl+3
  3756  00198E                     l892:
  3757  00198E  0012               	return		;funcret
  3758  001990                     __end_of___xxtofl:
  3759                           	callstack 0
  3760                           
  3761 ;; *************** function ___fltol *****************
  3762 ;; Defined at:
  3763 ;;		line 43 in file "C:\Program Files\Microchip\xc8\v2.31\pic\sources\c99\common\fltol.c"
  3764 ;; Parameters:    Size  Location     Type
  3765 ;;  f1              4    0[COMRAM] unsigned char 
  3766 ;; Auto vars:     Size  Location     Type
  3767 ;;  exp1            1    9[COMRAM] unsigned char 
  3768 ;;  sign1           1    8[COMRAM] unsigned char 
  3769 ;; Return value:  Size  Location     Type
  3770 ;;                  4    0[COMRAM] long 
  3771 ;; Registers used:
  3772 ;;		wreg, status,2, status,0
  3773 ;; Tracked objects:
  3774 ;;		On entry : 0/0
  3775 ;;		On exit  : 0/0
  3776 ;;		Unchanged: 0/0
  3777 ;; Data sizes:     COMRAM   BANK0   BANK1   BANK2   BANK3   BANK4   BANK5   BANK6   BANK7
  3778 ;;      Params:         4       0       0       0       0       0       0       0       0
  3779 ;;      Locals:         2       0       0       0       0       0       0       0       0
  3780 ;;      Temps:          4       0       0       0       0       0       0       0       0
  3781 ;;      Totals:        10       0       0       0       0       0       0       0       0
  3782 ;;Total ram usage:       10 bytes
  3783 ;; Hardware stack levels used:    1
  3784 ;; This function calls:
  3785 ;;		Nothing
  3786 ;; This function is called by:
  3787 ;;		_USART_Init
  3788 ;; This function uses a non-reentrant model
  3789 ;;
  3790                           
  3791                           	psect	text20
  3792  001DF2                     __ptext20:
  3793                           	callstack 0
  3794  001DF2                     ___fltol:
  3795                           	callstack 29
  3796  001DF2  3403               	rlcf	(___fltol@f1+2)^0,w,c
  3797  001DF4  3404               	rlcf	(___fltol@f1+3)^0,w,c
  3798  001DF6  6E0A               	movwf	___fltol@exp1^0,c
  3799  001DF8  500A               	movf	___fltol@exp1^0,w,c
  3800  001DFA  A4D8               	btfss	status,2,c
  3801  001DFC  EF02  F00F         	goto	u2761
  3802  001E00  EF04  F00F         	goto	u2760
  3803  001E04                     u2761:
  3804  001E04  EF0E  F00F         	goto	l2693
  3805  001E08                     u2760:
  3806  001E08                     l2689:
  3807  001E08  0E00               	movlw	0
  3808  001E0A  6E01               	movwf	?___fltol^0,c
  3809  001E0C  0E00               	movlw	0
  3810  001E0E  6E02               	movwf	(?___fltol+1)^0,c
  3811  001E10  0E00               	movlw	0
  3812  001E12  6E03               	movwf	(?___fltol+2)^0,c
  3813  001E14  0E00               	movlw	0
  3814  001E16  6E04               	movwf	(?___fltol+3)^0,c
  3815  001E18  EF7B  F00F         	goto	l531
  3816  001E1C                     l2693:
  3817  001E1C  C001  F005         	movff	___fltol@f1,??___fltol
  3818  001E20  C002  F006         	movff	___fltol@f1+1,??___fltol+1
  3819  001E24  C003  F007         	movff	___fltol@f1+2,??___fltol+2
  3820  001E28  C004  F008         	movff	___fltol@f1+3,??___fltol+3
  3821  001E2C  0E20               	movlw	32
  3822  001E2E  EF1E  F00F         	goto	u2770
  3823  001E32                     u2775:
  3824  001E32  90D8               	bcf	status,0,c
  3825  001E34  3208               	rrcf	(??___fltol+3)^0,f,c
  3826  001E36  3207               	rrcf	(??___fltol+2)^0,f,c
  3827  001E38  3206               	rrcf	(??___fltol+1)^0,f,c
  3828  001E3A  3205               	rrcf	??___fltol^0,f,c
  3829  001E3C                     u2770:
  3830  001E3C  2EE8               	decfsz	wreg,f,c
  3831  001E3E  EF19  F00F         	goto	u2775
  3832  001E42  5005               	movf	??___fltol^0,w,c
  3833  001E44  6E09               	movwf	___fltol@sign1^0,c
  3834  001E46  8E03               	bsf	(___fltol@f1+2)^0,7,c
  3835  001E48  0EFF               	movlw	255
  3836  001E4A  1601               	andwf	___fltol@f1^0,f,c
  3837  001E4C  0EFF               	movlw	255
  3838  001E4E  1602               	andwf	(___fltol@f1+1)^0,f,c
  3839  001E50  0EFF               	movlw	255
  3840  001E52  1603               	andwf	(___fltol@f1+2)^0,f,c
  3841  001E54  0E00               	movlw	0
  3842  001E56  1604               	andwf	(___fltol@f1+3)^0,f,c
  3843  001E58  0E96               	movlw	150
  3844  001E5A  5E0A               	subwf	___fltol@exp1^0,f,c
  3845  001E5C  BE0A               	btfsc	___fltol@exp1^0,7,c
  3846  001E5E  EF35  F00F         	goto	u2780
  3847  001E62  EF33  F00F         	goto	u2781
  3848  001E66                     u2781:
  3849  001E66  EF4B  F00F         	goto	l2713
  3850  001E6A                     u2780:
  3851  001E6A  500A               	movf	___fltol@exp1^0,w,c
  3852  001E6C  0A80               	xorlw	128
  3853  001E6E  0F97               	addlw	151
  3854  001E70  B0D8               	btfsc	status,0,c
  3855  001E72  EF3D  F00F         	goto	u2791
  3856  001E76  EF3F  F00F         	goto	u2790
  3857  001E7A                     u2791:
  3858  001E7A  EF41  F00F         	goto	l2709
  3859  001E7E                     u2790:
  3860  001E7E  EF04  F00F         	goto	l2689
  3861  001E82                     l2709:
  3862  001E82  90D8               	bcf	status,0,c
  3863  001E84  3204               	rrcf	(___fltol@f1+3)^0,f,c
  3864  001E86  3203               	rrcf	(___fltol@f1+2)^0,f,c
  3865  001E88  3202               	rrcf	(___fltol@f1+1)^0,f,c
  3866  001E8A  3201               	rrcf	___fltol@f1^0,f,c
  3867  001E8C  3E0A               	incfsz	___fltol@exp1^0,f,c
  3868  001E8E  EF41  F00F         	goto	l2709
  3869  001E92  EF63  F00F         	goto	l2723
  3870  001E96                     l2713:
  3871  001E96  0E1F               	movlw	31
  3872  001E98  640A               	cpfsgt	___fltol@exp1^0,c
  3873  001E9A  EF51  F00F         	goto	u2801
  3874  001E9E  EF53  F00F         	goto	u2800
  3875  001EA2                     u2801:
  3876  001EA2  EF5B  F00F         	goto	l2721
  3877  001EA6                     u2800:
  3878  001EA6  EF04  F00F         	goto	l2689
  3879  001EAA                     l2719:
  3880  001EAA  90D8               	bcf	status,0,c
  3881  001EAC  3601               	rlcf	___fltol@f1^0,f,c
  3882  001EAE  3602               	rlcf	(___fltol@f1+1)^0,f,c
  3883  001EB0  3603               	rlcf	(___fltol@f1+2)^0,f,c
  3884  001EB2  3604               	rlcf	(___fltol@f1+3)^0,f,c
  3885  001EB4  060A               	decf	___fltol@exp1^0,f,c
  3886  001EB6                     l2721:
  3887  001EB6  500A               	movf	___fltol@exp1^0,w,c
  3888  001EB8  A4D8               	btfss	status,2,c
  3889  001EBA  EF61  F00F         	goto	u2811
  3890  001EBE  EF63  F00F         	goto	u2810
  3891  001EC2                     u2811:
  3892  001EC2  EF55  F00F         	goto	l2719
  3893  001EC6                     u2810:
  3894  001EC6                     l2723:
  3895  001EC6  5009               	movf	___fltol@sign1^0,w,c
  3896  001EC8  B4D8               	btfsc	status,2,c
  3897  001ECA  EF69  F00F         	goto	u2821
  3898  001ECE  EF6B  F00F         	goto	u2820
  3899  001ED2                     u2821:
  3900  001ED2  EF73  F00F         	goto	l2727
  3901  001ED6                     u2820:
  3902  001ED6  1E04               	comf	(___fltol@f1+3)^0,f,c
  3903  001ED8  1E03               	comf	(___fltol@f1+2)^0,f,c
  3904  001EDA  1E02               	comf	(___fltol@f1+1)^0,f,c
  3905  001EDC  6C01               	negf	___fltol@f1^0,c
  3906  001EDE  0E00               	movlw	0
  3907  001EE0  2202               	addwfc	(___fltol@f1+1)^0,f,c
  3908  001EE2  2203               	addwfc	(___fltol@f1+2)^0,f,c
  3909  001EE4  2204               	addwfc	(___fltol@f1+3)^0,f,c
  3910  001EE6                     l2727:
  3911  001EE6  C001  F001         	movff	___fltol@f1,?___fltol
  3912  001EEA  C002  F002         	movff	___fltol@f1+1,?___fltol+1
  3913  001EEE  C003  F003         	movff	___fltol@f1+2,?___fltol+2
  3914  001EF2  C004  F004         	movff	___fltol@f1+3,?___fltol+3
  3915  001EF6                     l531:
  3916  001EF6  0012               	return		;funcret
  3917  001EF8                     __end_of___fltol:
  3918                           	callstack 0
  3919                           
  3920 ;; *************** function ___fldiv *****************
  3921 ;; Defined at:
  3922 ;;		line 11 in file "C:\Program Files\Microchip\xc8\v2.31\pic\sources\c99\common\sprcdiv.c"
  3923 ;; Parameters:    Size  Location     Type
  3924 ;;  b               4   14[COMRAM] long 
  3925 ;;  a               4   18[COMRAM] long 
  3926 ;; Auto vars:     Size  Location     Type
  3927 ;;  grs             4   33[COMRAM] unsigned long 
  3928 ;;  rem             4   26[COMRAM] unsigned long 
  3929 ;;  new_exp         2   31[COMRAM] short 
  3930 ;;  aexp            1   38[COMRAM] unsigned char 
  3931 ;;  bexp            1   37[COMRAM] unsigned char 
  3932 ;;  sign            1   30[COMRAM] unsigned char 
  3933 ;; Return value:  Size  Location     Type
  3934 ;;                  4   14[COMRAM] unsigned char 
  3935 ;; Registers used:
  3936 ;;		wreg, status,2, status,0
  3937 ;; Tracked objects:
  3938 ;;		On entry : 0/0
  3939 ;;		On exit  : 0/0
  3940 ;;		Unchanged: 0/0
  3941 ;; Data sizes:     COMRAM   BANK0   BANK1   BANK2   BANK3   BANK4   BANK5   BANK6   BANK7
  3942 ;;      Params:         8       0       0       0       0       0       0       0       0
  3943 ;;      Locals:        13       0       0       0       0       0       0       0       0
  3944 ;;      Temps:          4       0       0       0       0       0       0       0       0
  3945 ;;      Totals:        25       0       0       0       0       0       0       0       0
  3946 ;;Total ram usage:       25 bytes
  3947 ;; Hardware stack levels used:    1
  3948 ;; This function calls:
  3949 ;;		Nothing
  3950 ;; This function is called by:
  3951 ;;		_USART_Init
  3952 ;; This function uses a non-reentrant model
  3953 ;;
  3954                           
  3955                           	psect	text21
  3956  000CF0                     __ptext21:
  3957                           	callstack 0
  3958  000CF0                     ___fldiv:
  3959                           	callstack 29
  3960  000CF0  5012               	movf	(___fldiv@b+3)^0,w,c
  3961  000CF2  0B80               	andlw	128
  3962  000CF4  6E1F               	movwf	___fldiv@sign^0,c
  3963  000CF6  5012               	movf	(___fldiv@b+3)^0,w,c
  3964  000CF8  2412               	addwf	(___fldiv@b+3)^0,w,c
  3965  000CFA  6E26               	movwf	___fldiv@bexp^0,c
  3966  000CFC  AE11               	btfss	(___fldiv@b+2)^0,7,c
  3967  000CFE  EF83  F006         	goto	u2531
  3968  000D02  EF85  F006         	goto	u2530
  3969  000D06                     u2531:
  3970  000D06  EF86  F006         	goto	l2555
  3971  000D0A                     u2530:
  3972  000D0A  8026               	bsf	___fldiv@bexp^0,0,c
  3973  000D0C                     l2555:
  3974  000D0C  5026               	movf	___fldiv@bexp^0,w,c
  3975  000D0E  B4D8               	btfsc	status,2,c
  3976  000D10  EF8C  F006         	goto	u2541
  3977  000D14  EF8E  F006         	goto	u2540
  3978  000D18                     u2541:
  3979  000D18  EFA3  F006         	goto	l2565
  3980  000D1C                     u2540:
  3981  000D1C  2826               	incf	___fldiv@bexp^0,w,c
  3982  000D1E  A4D8               	btfss	status,2,c
  3983  000D20  EF94  F006         	goto	u2551
  3984  000D24  EF96  F006         	goto	u2550
  3985  000D28                     u2551:
  3986  000D28  EF9E  F006         	goto	l2561
  3987  000D2C                     u2550:
  3988  000D2C  0E00               	movlw	0
  3989  000D2E  6E0F               	movwf	___fldiv@b^0,c
  3990  000D30  0E00               	movlw	0
  3991  000D32  6E10               	movwf	(___fldiv@b+1)^0,c
  3992  000D34  0E00               	movlw	0
  3993  000D36  6E11               	movwf	(___fldiv@b+2)^0,c
  3994  000D38  0E00               	movlw	0
  3995  000D3A  6E12               	movwf	(___fldiv@b+3)^0,c
  3996  000D3C                     l2561:
  3997  000D3C  8E11               	bsf	(___fldiv@b+2)^0,7,c
  3998  000D3E  0E00               	movlw	0
  3999  000D40  6E12               	movwf	(___fldiv@b+3)^0,c
  4000  000D42  EFAB  F006         	goto	l2567
  4001  000D46                     l2565:
  4002  000D46  0E00               	movlw	0
  4003  000D48  6E0F               	movwf	___fldiv@b^0,c
  4004  000D4A  0E00               	movlw	0
  4005  000D4C  6E10               	movwf	(___fldiv@b+1)^0,c
  4006  000D4E  0E00               	movlw	0
  4007  000D50  6E11               	movwf	(___fldiv@b+2)^0,c
  4008  000D52  0E00               	movlw	0
  4009  000D54  6E12               	movwf	(___fldiv@b+3)^0,c
  4010  000D56                     l2567:
  4011  000D56  5016               	movf	(___fldiv@a+3)^0,w,c
  4012  000D58  0B80               	andlw	128
  4013  000D5A  1A1F               	xorwf	___fldiv@sign^0,f,c
  4014  000D5C  5016               	movf	(___fldiv@a+3)^0,w,c
  4015  000D5E  2416               	addwf	(___fldiv@a+3)^0,w,c
  4016  000D60  6E27               	movwf	___fldiv@aexp^0,c
  4017  000D62  AE15               	btfss	(___fldiv@a+2)^0,7,c
  4018  000D64  EFB6  F006         	goto	u2561
  4019  000D68  EFB8  F006         	goto	u2560
  4020  000D6C                     u2561:
  4021  000D6C  EFB9  F006         	goto	l2575
  4022  000D70                     u2560:
  4023  000D70  8027               	bsf	___fldiv@aexp^0,0,c
  4024  000D72                     l2575:
  4025  000D72  5027               	movf	___fldiv@aexp^0,w,c
  4026  000D74  B4D8               	btfsc	status,2,c
  4027  000D76  EFBF  F006         	goto	u2571
  4028  000D7A  EFC1  F006         	goto	u2570
  4029  000D7E                     u2571:
  4030  000D7E  EFD6  F006         	goto	l2585
  4031  000D82                     u2570:
  4032  000D82  2827               	incf	___fldiv@aexp^0,w,c
  4033  000D84  A4D8               	btfss	status,2,c
  4034  000D86  EFC7  F006         	goto	u2581
  4035  000D8A  EFC9  F006         	goto	u2580
  4036  000D8E                     u2581:
  4037  000D8E  EFD1  F006         	goto	l2581
  4038  000D92                     u2580:
  4039  000D92  0E00               	movlw	0
  4040  000D94  6E13               	movwf	___fldiv@a^0,c
  4041  000D96  0E00               	movlw	0
  4042  000D98  6E14               	movwf	(___fldiv@a+1)^0,c
  4043  000D9A  0E00               	movlw	0
  4044  000D9C  6E15               	movwf	(___fldiv@a+2)^0,c
  4045  000D9E  0E00               	movlw	0
  4046  000DA0  6E16               	movwf	(___fldiv@a+3)^0,c
  4047  000DA2                     l2581:
  4048  000DA2  8E15               	bsf	(___fldiv@a+2)^0,7,c
  4049  000DA4  0E00               	movlw	0
  4050  000DA6  6E16               	movwf	(___fldiv@a+3)^0,c
  4051  000DA8  EFDE  F006         	goto	l2587
  4052  000DAC                     l2585:
  4053  000DAC  0E00               	movlw	0
  4054  000DAE  6E13               	movwf	___fldiv@a^0,c
  4055  000DB0  0E00               	movlw	0
  4056  000DB2  6E14               	movwf	(___fldiv@a+1)^0,c
  4057  000DB4  0E00               	movlw	0
  4058  000DB6  6E15               	movwf	(___fldiv@a+2)^0,c
  4059  000DB8  0E00               	movlw	0
  4060  000DBA  6E16               	movwf	(___fldiv@a+3)^0,c
  4061  000DBC                     l2587:
  4062  000DBC  5013               	movf	___fldiv@a^0,w,c
  4063  000DBE  1014               	iorwf	(___fldiv@a+1)^0,w,c
  4064  000DC0  1015               	iorwf	(___fldiv@a+2)^0,w,c
  4065  000DC2  1016               	iorwf	(___fldiv@a+3)^0,w,c
  4066  000DC4  A4D8               	btfss	status,2,c
  4067  000DC6  EFE7  F006         	goto	u2591
  4068  000DCA  EFE9  F006         	goto	u2590
  4069  000DCE                     u2591:
  4070  000DCE  EF01  F007         	goto	l2599
  4071  000DD2                     u2590:
  4072  000DD2  0E00               	movlw	0
  4073  000DD4  6E0F               	movwf	___fldiv@b^0,c
  4074  000DD6  0E00               	movlw	0
  4075  000DD8  6E10               	movwf	(___fldiv@b+1)^0,c
  4076  000DDA  0E00               	movlw	0
  4077  000DDC  6E11               	movwf	(___fldiv@b+2)^0,c
  4078  000DDE  0E00               	movlw	0
  4079  000DE0  6E12               	movwf	(___fldiv@b+3)^0,c
  4080  000DE2  0E80               	movlw	128
  4081  000DE4  1211               	iorwf	(___fldiv@b+2)^0,f,c
  4082  000DE6  0E7F               	movlw	127
  4083  000DE8  1212               	iorwf	(___fldiv@b+3)^0,f,c
  4084  000DEA                     l2593:
  4085  000DEA  501F               	movf	___fldiv@sign^0,w,c
  4086  000DEC  1212               	iorwf	(___fldiv@b+3)^0,f,c
  4087  000DEE  C00F  F00F         	movff	___fldiv@b,?___fldiv
  4088  000DF2  C010  F010         	movff	___fldiv@b+1,?___fldiv+1
  4089  000DF6  C011  F011         	movff	___fldiv@b+2,?___fldiv+2
  4090  000DFA  C012  F012         	movff	___fldiv@b+3,?___fldiv+3
  4091  000DFE  EF44  F008         	goto	l816
  4092  000E02                     l2599:
  4093  000E02  5026               	movf	___fldiv@bexp^0,w,c
  4094  000E04  A4D8               	btfss	status,2,c
  4095  000E06  EF07  F007         	goto	u2601
  4096  000E0A  EF09  F007         	goto	u2600
  4097  000E0E                     u2601:
  4098  000E0E  EF13  F007         	goto	l2607
  4099  000E12                     u2600:
  4100  000E12  0E00               	movlw	0
  4101  000E14  6E0F               	movwf	?___fldiv^0,c
  4102  000E16  0E00               	movlw	0
  4103  000E18  6E10               	movwf	(?___fldiv+1)^0,c
  4104  000E1A  0E00               	movlw	0
  4105  000E1C  6E11               	movwf	(?___fldiv+2)^0,c
  4106  000E1E  0E00               	movlw	0
  4107  000E20  6E12               	movwf	(?___fldiv+3)^0,c
  4108  000E22  EF44  F008         	goto	l816
  4109  000E26                     l2607:
  4110  000E26  5027               	movf	___fldiv@aexp^0,w,c
  4111  000E28  C026  F017         	movff	___fldiv@bexp,??___fldiv
  4112  000E2C  6A18               	clrf	(??___fldiv+1)^0,c
  4113  000E2E  5E17               	subwf	??___fldiv^0,f,c
  4114  000E30  0E00               	movlw	0
  4115  000E32  5A18               	subwfb	(??___fldiv+1)^0,f,c
  4116  000E34  0E7F               	movlw	127
  4117  000E36  2417               	addwf	??___fldiv^0,w,c
  4118  000E38  6E20               	movwf	___fldiv@new_exp^0,c
  4119  000E3A  0E00               	movlw	0
  4120  000E3C  2018               	addwfc	(??___fldiv+1)^0,w,c
  4121  000E3E  6E21               	movwf	(___fldiv@new_exp+1)^0,c
  4122  000E40  C00F  F01B         	movff	___fldiv@b,___fldiv@rem
  4123  000E44  C010  F01C         	movff	___fldiv@b+1,___fldiv@rem+1
  4124  000E48  C011  F01D         	movff	___fldiv@b+2,___fldiv@rem+2
  4125  000E4C  C012  F01E         	movff	___fldiv@b+3,___fldiv@rem+3
  4126  000E50  0E00               	movlw	0
  4127  000E52  6E0F               	movwf	___fldiv@b^0,c
  4128  000E54  0E00               	movlw	0
  4129  000E56  6E10               	movwf	(___fldiv@b+1)^0,c
  4130  000E58  0E00               	movlw	0
  4131  000E5A  6E11               	movwf	(___fldiv@b+2)^0,c
  4132  000E5C  0E00               	movlw	0
  4133  000E5E  6E12               	movwf	(___fldiv@b+3)^0,c
  4134  000E60  0E00               	movlw	0
  4135  000E62  6E22               	movwf	___fldiv@grs^0,c
  4136  000E64  0E00               	movlw	0
  4137  000E66  6E23               	movwf	(___fldiv@grs+1)^0,c
  4138  000E68  0E00               	movlw	0
  4139  000E6A  6E24               	movwf	(___fldiv@grs+2)^0,c
  4140  000E6C  0E00               	movlw	0
  4141  000E6E  6E25               	movwf	(___fldiv@grs+3)^0,c
  4142  000E70  0E00               	movlw	0
  4143  000E72  6E27               	movwf	___fldiv@aexp^0,c
  4144  000E74  EF74  F007         	goto	l818
  4145  000E78                     l2617:
  4146  000E78  5027               	movf	___fldiv@aexp^0,w,c
  4147  000E7A  B4D8               	btfsc	status,2,c
  4148  000E7C  EF42  F007         	goto	u2611
  4149  000E80  EF44  F007         	goto	u2610
  4150  000E84                     u2611:
  4151  000E84  EF5B  F007         	goto	l2625
  4152  000E88                     u2610:
  4153  000E88  90D8               	bcf	status,0,c
  4154  000E8A  361B               	rlcf	___fldiv@rem^0,f,c
  4155  000E8C  361C               	rlcf	(___fldiv@rem+1)^0,f,c
  4156  000E8E  361D               	rlcf	(___fldiv@rem+2)^0,f,c
  4157  000E90  361E               	rlcf	(___fldiv@rem+3)^0,f,c
  4158  000E92  90D8               	bcf	status,0,c
  4159  000E94  360F               	rlcf	___fldiv@b^0,f,c
  4160  000E96  3610               	rlcf	(___fldiv@b+1)^0,f,c
  4161  000E98  3611               	rlcf	(___fldiv@b+2)^0,f,c
  4162  000E9A  3612               	rlcf	(___fldiv@b+3)^0,f,c
  4163  000E9C  AE25               	btfss	(___fldiv@grs+3)^0,7,c
  4164  000E9E  EF53  F007         	goto	u2621
  4165  000EA2  EF55  F007         	goto	u2620
  4166  000EA6                     u2621:
  4167  000EA6  EF56  F007         	goto	l821
  4168  000EAA                     u2620:
  4169  000EAA  800F               	bsf	___fldiv@b^0,0,c
  4170  000EAC                     l821:
  4171  000EAC  90D8               	bcf	status,0,c
  4172  000EAE  3622               	rlcf	___fldiv@grs^0,f,c
  4173  000EB0  3623               	rlcf	(___fldiv@grs+1)^0,f,c
  4174  000EB2  3624               	rlcf	(___fldiv@grs+2)^0,f,c
  4175  000EB4  3625               	rlcf	(___fldiv@grs+3)^0,f,c
  4176  000EB6                     l2625:
  4177  000EB6  5013               	movf	___fldiv@a^0,w,c
  4178  000EB8  5C1B               	subwf	___fldiv@rem^0,w,c
  4179  000EBA  5014               	movf	(___fldiv@a+1)^0,w,c
  4180  000EBC  581C               	subwfb	(___fldiv@rem+1)^0,w,c
  4181  000EBE  5015               	movf	(___fldiv@a+2)^0,w,c
  4182  000EC0  581D               	subwfb	(___fldiv@rem+2)^0,w,c
  4183  000EC2  5016               	movf	(___fldiv@a+3)^0,w,c
  4184  000EC4  581E               	subwfb	(___fldiv@rem+3)^0,w,c
  4185  000EC6  A0D8               	btfss	status,0,c
  4186  000EC8  EF68  F007         	goto	u2631
  4187  000ECC  EF6A  F007         	goto	u2630
  4188  000ED0                     u2631:
  4189  000ED0  EF73  F007         	goto	l2631
  4190  000ED4                     u2630:
  4191  000ED4  8C25               	bsf	(___fldiv@grs+3)^0,6,c
  4192  000ED6  5013               	movf	___fldiv@a^0,w,c
  4193  000ED8  5E1B               	subwf	___fldiv@rem^0,f,c
  4194  000EDA  5014               	movf	(___fldiv@a+1)^0,w,c
  4195  000EDC  5A1C               	subwfb	(___fldiv@rem+1)^0,f,c
  4196  000EDE  5015               	movf	(___fldiv@a+2)^0,w,c
  4197  000EE0  5A1D               	subwfb	(___fldiv@rem+2)^0,f,c
  4198  000EE2  5016               	movf	(___fldiv@a+3)^0,w,c
  4199  000EE4  5A1E               	subwfb	(___fldiv@rem+3)^0,f,c
  4200  000EE6                     l2631:
  4201  000EE6  2A27               	incf	___fldiv@aexp^0,f,c
  4202  000EE8                     l818:
  4203  000EE8  0E19               	movlw	25
  4204  000EEA  6427               	cpfsgt	___fldiv@aexp^0,c
  4205  000EEC  EF7A  F007         	goto	u2641
  4206  000EF0  EF7C  F007         	goto	u2640
  4207  000EF4                     u2641:
  4208  000EF4  EF3C  F007         	goto	l2617
  4209  000EF8                     u2640:
  4210  000EF8  501B               	movf	___fldiv@rem^0,w,c
  4211  000EFA  101C               	iorwf	(___fldiv@rem+1)^0,w,c
  4212  000EFC  101D               	iorwf	(___fldiv@rem+2)^0,w,c
  4213  000EFE  101E               	iorwf	(___fldiv@rem+3)^0,w,c
  4214  000F00  B4D8               	btfsc	status,2,c
  4215  000F02  EF85  F007         	goto	u2651
  4216  000F06  EF87  F007         	goto	u2650
  4217  000F0A                     u2651:
  4218  000F0A  EF9F  F007         	goto	l2643
  4219  000F0E                     u2650:
  4220  000F0E  8022               	bsf	___fldiv@grs^0,0,c
  4221  000F10  EF9F  F007         	goto	l2643
  4222  000F14                     l2637:
  4223  000F14  90D8               	bcf	status,0,c
  4224  000F16  360F               	rlcf	___fldiv@b^0,f,c
  4225  000F18  3610               	rlcf	(___fldiv@b+1)^0,f,c
  4226  000F1A  3611               	rlcf	(___fldiv@b+2)^0,f,c
  4227  000F1C  3612               	rlcf	(___fldiv@b+3)^0,f,c
  4228  000F1E  AE25               	btfss	(___fldiv@grs+3)^0,7,c
  4229  000F20  EF94  F007         	goto	u2661
  4230  000F24  EF96  F007         	goto	u2660
  4231  000F28                     u2661:
  4232  000F28  EF97  F007         	goto	l827
  4233  000F2C                     u2660:
  4234  000F2C  800F               	bsf	___fldiv@b^0,0,c
  4235  000F2E                     l827:
  4236  000F2E  90D8               	bcf	status,0,c
  4237  000F30  3622               	rlcf	___fldiv@grs^0,f,c
  4238  000F32  3623               	rlcf	(___fldiv@grs+1)^0,f,c
  4239  000F34  3624               	rlcf	(___fldiv@grs+2)^0,f,c
  4240  000F36  3625               	rlcf	(___fldiv@grs+3)^0,f,c
  4241  000F38  0620               	decf	___fldiv@new_exp^0,f,c
  4242  000F3A  A0D8               	btfss	status,0,c
  4243  000F3C  0621               	decf	(___fldiv@new_exp+1)^0,f,c
  4244  000F3E                     l2643:
  4245  000F3E  AE11               	btfss	(___fldiv@b+2)^0,7,c
  4246  000F40  EFA4  F007         	goto	u2671
  4247  000F44  EFA6  F007         	goto	u2670
  4248  000F48                     u2671:
  4249  000F48  EF8A  F007         	goto	l2637
  4250  000F4C                     u2670:
  4251  000F4C  0E00               	movlw	0
  4252  000F4E  6E27               	movwf	___fldiv@aexp^0,c
  4253  000F50  AE25               	btfss	(___fldiv@grs+3)^0,7,c
  4254  000F52  EFAD  F007         	goto	u2681
  4255  000F56  EFAF  F007         	goto	u2680
  4256  000F5A                     u2681:
  4257  000F5A  EFD3  F007         	goto	l829
  4258  000F5E                     u2680:
  4259  000F5E  0EFF               	movlw	255
  4260  000F60  1422               	andwf	___fldiv@grs^0,w,c
  4261  000F62  6E17               	movwf	??___fldiv^0,c
  4262  000F64  0EFF               	movlw	255
  4263  000F66  1423               	andwf	(___fldiv@grs+1)^0,w,c
  4264  000F68  6E18               	movwf	(??___fldiv+1)^0,c
  4265  000F6A  0EFF               	movlw	255
  4266  000F6C  1424               	andwf	(___fldiv@grs+2)^0,w,c
  4267  000F6E  6E19               	movwf	(??___fldiv+2)^0,c
  4268  000F70  0E7F               	movlw	127
  4269  000F72  1425               	andwf	(___fldiv@grs+3)^0,w,c
  4270  000F74  6E1A               	movwf	(??___fldiv+3)^0,c
  4271  000F76  5017               	movf	??___fldiv^0,w,c
  4272  000F78  1018               	iorwf	(??___fldiv+1)^0,w,c
  4273  000F7A  1019               	iorwf	(??___fldiv+2)^0,w,c
  4274  000F7C  101A               	iorwf	(??___fldiv+3)^0,w,c
  4275  000F7E  B4D8               	btfsc	status,2,c
  4276  000F80  EFC4  F007         	goto	u2691
  4277  000F84  EFC6  F007         	goto	u2690
  4278  000F88                     u2691:
  4279  000F88  EFCA  F007         	goto	l830
  4280  000F8C                     u2690:
  4281  000F8C                     l2651:
  4282  000F8C  0E01               	movlw	1
  4283  000F8E  6E27               	movwf	___fldiv@aexp^0,c
  4284  000F90  EFD3  F007         	goto	l829
  4285  000F94                     l830:
  4286  000F94  A00F               	btfss	___fldiv@b^0,0,c
  4287  000F96  EFCF  F007         	goto	u2701
  4288  000F9A  EFD1  F007         	goto	u2700
  4289  000F9E                     u2701:
  4290  000F9E  EFD3  F007         	goto	l829
  4291  000FA2                     u2700:
  4292  000FA2  EFC6  F007         	goto	l2651
  4293  000FA6                     l829:
  4294  000FA6  5027               	movf	___fldiv@aexp^0,w,c
  4295  000FA8  B4D8               	btfsc	status,2,c
  4296  000FAA  EFD9  F007         	goto	u2711
  4297  000FAE  EFDB  F007         	goto	u2710
  4298  000FB2                     u2711:
  4299  000FB2  EFFF  F007         	goto	l2663
  4300  000FB6                     u2710:
  4301  000FB6  0E01               	movlw	1
  4302  000FB8  260F               	addwf	___fldiv@b^0,f,c
  4303  000FBA  0E00               	movlw	0
  4304  000FBC  2210               	addwfc	(___fldiv@b+1)^0,f,c
  4305  000FBE  2211               	addwfc	(___fldiv@b+2)^0,f,c
  4306  000FC0  2212               	addwfc	(___fldiv@b+3)^0,f,c
  4307  000FC2  A012               	btfss	(___fldiv@b+3)^0,0,c
  4308  000FC4  EFE6  F007         	goto	u2721
  4309  000FC8  EFE8  F007         	goto	u2720
  4310  000FCC                     u2721:
  4311  000FCC  EFFF  F007         	goto	l2663
  4312  000FD0                     u2720:
  4313  000FD0  C00F  F017         	movff	___fldiv@b,??___fldiv
  4314  000FD4  C010  F018         	movff	___fldiv@b+1,??___fldiv+1
  4315  000FD8  C011  F019         	movff	___fldiv@b+2,??___fldiv+2
  4316  000FDC  C012  F01A         	movff	___fldiv@b+3,??___fldiv+3
  4317  000FE0  341A               	rlcf	(??___fldiv+3)^0,w,c
  4318  000FE2  321A               	rrcf	(??___fldiv+3)^0,f,c
  4319  000FE4  3219               	rrcf	(??___fldiv+2)^0,f,c
  4320  000FE6  3218               	rrcf	(??___fldiv+1)^0,f,c
  4321  000FE8  3217               	rrcf	??___fldiv^0,f,c
  4322  000FEA  C017  F00F         	movff	??___fldiv,___fldiv@b
  4323  000FEE  C018  F010         	movff	??___fldiv+1,___fldiv@b+1
  4324  000FF2  C019  F011         	movff	??___fldiv+2,___fldiv@b+2
  4325  000FF6  C01A  F012         	movff	??___fldiv+3,___fldiv@b+3
  4326  000FFA  4A20               	infsnz	___fldiv@new_exp^0,f,c
  4327  000FFC  2A21               	incf	(___fldiv@new_exp+1)^0,f,c
  4328  000FFE                     l2663:
  4329  000FFE  BE21               	btfsc	(___fldiv@new_exp+1)^0,7,c
  4330  001000  EF0A  F008         	goto	u2731
  4331  001004  5021               	movf	(___fldiv@new_exp+1)^0,w,c
  4332  001006  E108               	bnz	u2730
  4333  001008  2820               	incf	___fldiv@new_exp^0,w,c
  4334  00100A  A0D8               	btfss	status,0,c
  4335  00100C  EF0A  F008         	goto	u2731
  4336  001010  EF0C  F008         	goto	u2730
  4337  001014                     u2731:
  4338  001014  EF17  F008         	goto	l2667
  4339  001018                     u2730:
  4340  001018  0E00               	movlw	0
  4341  00101A  6E21               	movwf	(___fldiv@new_exp+1)^0,c
  4342  00101C  6820               	setf	___fldiv@new_exp^0,c
  4343  00101E  0E00               	movlw	0
  4344  001020  6E0F               	movwf	___fldiv@b^0,c
  4345  001022  0E00               	movlw	0
  4346  001024  6E10               	movwf	(___fldiv@b+1)^0,c
  4347  001026  0E00               	movlw	0
  4348  001028  6E11               	movwf	(___fldiv@b+2)^0,c
  4349  00102A  0E00               	movlw	0
  4350  00102C  6E12               	movwf	(___fldiv@b+3)^0,c
  4351  00102E                     l2667:
  4352  00102E  BE21               	btfsc	(___fldiv@new_exp+1)^0,7,c
  4353  001030  EF24  F008         	goto	u2740
  4354  001034  5021               	movf	(___fldiv@new_exp+1)^0,w,c
  4355  001036  E106               	bnz	u2741
  4356  001038  0420               	decf	___fldiv@new_exp^0,w,c
  4357  00103A  B0D8               	btfsc	status,0,c
  4358  00103C  EF22  F008         	goto	u2741
  4359  001040  EF24  F008         	goto	u2740
  4360  001044                     u2741:
  4361  001044  EF32  F008         	goto	l2671
  4362  001048                     u2740:
  4363  001048  0E00               	movlw	0
  4364  00104A  6E21               	movwf	(___fldiv@new_exp+1)^0,c
  4365  00104C  0E00               	movlw	0
  4366  00104E  6E20               	movwf	___fldiv@new_exp^0,c
  4367  001050  0E00               	movlw	0
  4368  001052  6E0F               	movwf	___fldiv@b^0,c
  4369  001054  0E00               	movlw	0
  4370  001056  6E10               	movwf	(___fldiv@b+1)^0,c
  4371  001058  0E00               	movlw	0
  4372  00105A  6E11               	movwf	(___fldiv@b+2)^0,c
  4373  00105C  0E00               	movlw	0
  4374  00105E  6E12               	movwf	(___fldiv@b+3)^0,c
  4375  001060  0E00               	movlw	0
  4376  001062  6E1F               	movwf	___fldiv@sign^0,c
  4377  001064                     l2671:
  4378  001064  C020  F026         	movff	___fldiv@new_exp,___fldiv@bexp
  4379  001068  A026               	btfss	___fldiv@bexp^0,0,c
  4380  00106A  EF39  F008         	goto	u2751
  4381  00106E  EF3B  F008         	goto	u2750
  4382  001072                     u2751:
  4383  001072  EF3E  F008         	goto	l2677
  4384  001076                     u2750:
  4385  001076  8E11               	bsf	(___fldiv@b+2)^0,7,c
  4386  001078  EF3F  F008         	goto	l2679
  4387  00107C                     l2677:
  4388  00107C  9E11               	bcf	(___fldiv@b+2)^0,7,c
  4389  00107E                     l2679:
  4390  00107E  90D8               	bcf	status,0,c
  4391  001080  3026               	rrcf	___fldiv@bexp^0,w,c
  4392  001082  6E12               	movwf	(___fldiv@b+3)^0,c
  4393  001084  EFF5  F006         	goto	l2593
  4394  001088                     l816:
  4395  001088  0012               	return		;funcret
  4396  00108A                     __end_of___fldiv:
  4397                           	callstack 0
  4398                           
  4399 ;; *************** function ___fladd *****************
  4400 ;; Defined at:
  4401 ;;		line 10 in file "C:\Program Files\Microchip\xc8\v2.31\pic\sources\c99\common\sprcadd.c"
  4402 ;; Parameters:    Size  Location     Type
  4403 ;;  b               4   39[COMRAM] unsigned char 
  4404 ;;  a               4   43[COMRAM] unsigned char 
  4405 ;; Auto vars:     Size  Location     Type
  4406 ;;  grs             1   54[COMRAM] unsigned char 
  4407 ;;  bexp            1   53[COMRAM] unsigned char 
  4408 ;;  aexp            1   52[COMRAM] unsigned char 
  4409 ;;  signs           1   51[COMRAM] unsigned char 
  4410 ;; Return value:  Size  Location     Type
  4411 ;;                  4   39[COMRAM] unsigned char 
  4412 ;; Registers used:
  4413 ;;		wreg, status,2, status,0
  4414 ;; Tracked objects:
  4415 ;;		On entry : 0/0
  4416 ;;		On exit  : 0/0
  4417 ;;		Unchanged: 0/0
  4418 ;; Data sizes:     COMRAM   BANK0   BANK1   BANK2   BANK3   BANK4   BANK5   BANK6   BANK7
  4419 ;;      Params:         8       0       0       0       0       0       0       0       0
  4420 ;;      Locals:         4       0       0       0       0       0       0       0       0
  4421 ;;      Temps:          4       0       0       0       0       0       0       0       0
  4422 ;;      Totals:        16       0       0       0       0       0       0       0       0
  4423 ;;Total ram usage:       16 bytes
  4424 ;; Hardware stack levels used:    1
  4425 ;; This function calls:
  4426 ;;		Nothing
  4427 ;; This function is called by:
  4428 ;;		_USART_Init
  4429 ;; This function uses a non-reentrant model
  4430 ;;
  4431                           
  4432                           	psect	text22
  4433  000830                     __ptext22:
  4434                           	callstack 0
  4435  000830                     ___fladd:
  4436                           	callstack 29
  4437  000830  502B               	movf	(___fladd@b+3)^0,w,c
  4438  000832  0B80               	andlw	128
  4439  000834  6E34               	movwf	___fladd@signs^0,c
  4440  000836  502B               	movf	(___fladd@b+3)^0,w,c
  4441  000838  242B               	addwf	(___fladd@b+3)^0,w,c
  4442  00083A  6E36               	movwf	___fladd@bexp^0,c
  4443  00083C  AE2A               	btfss	(___fladd@b+2)^0,7,c
  4444  00083E  EF23  F004         	goto	u2141
  4445  000842  EF25  F004         	goto	u2140
  4446  000846                     u2141:
  4447  000846  EF26  F004         	goto	l2353
  4448  00084A                     u2140:
  4449  00084A  8036               	bsf	___fladd@bexp^0,0,c
  4450  00084C                     l2353:
  4451  00084C  5036               	movf	___fladd@bexp^0,w,c
  4452  00084E  B4D8               	btfsc	status,2,c
  4453  000850  EF2C  F004         	goto	u2151
  4454  000854  EF2E  F004         	goto	u2150
  4455  000858                     u2151:
  4456  000858  EF43  F004         	goto	l2363
  4457  00085C                     u2150:
  4458  00085C  2836               	incf	___fladd@bexp^0,w,c
  4459  00085E  A4D8               	btfss	status,2,c
  4460  000860  EF34  F004         	goto	u2161
  4461  000864  EF36  F004         	goto	u2160
  4462  000868                     u2161:
  4463  000868  EF3E  F004         	goto	l2359
  4464  00086C                     u2160:
  4465  00086C  0E00               	movlw	0
  4466  00086E  6E28               	movwf	___fladd@b^0,c
  4467  000870  0E00               	movlw	0
  4468  000872  6E29               	movwf	(___fladd@b+1)^0,c
  4469  000874  0E00               	movlw	0
  4470  000876  6E2A               	movwf	(___fladd@b+2)^0,c
  4471  000878  0E00               	movlw	0
  4472  00087A  6E2B               	movwf	(___fladd@b+3)^0,c
  4473  00087C                     l2359:
  4474  00087C  8E2A               	bsf	(___fladd@b+2)^0,7,c
  4475  00087E  0E00               	movlw	0
  4476  000880  6E2B               	movwf	(___fladd@b+3)^0,c
  4477  000882  EF4B  F004         	goto	l2365
  4478  000886                     l2363:
  4479  000886  0E00               	movlw	0
  4480  000888  6E28               	movwf	___fladd@b^0,c
  4481  00088A  0E00               	movlw	0
  4482  00088C  6E29               	movwf	(___fladd@b+1)^0,c
  4483  00088E  0E00               	movlw	0
  4484  000890  6E2A               	movwf	(___fladd@b+2)^0,c
  4485  000892  0E00               	movlw	0
  4486  000894  6E2B               	movwf	(___fladd@b+3)^0,c
  4487  000896                     l2365:
  4488  000896  502F               	movf	(___fladd@a+3)^0,w,c
  4489  000898  0B80               	andlw	128
  4490  00089A  6E35               	movwf	___fladd@aexp^0,c
  4491  00089C  5034               	movf	___fladd@signs^0,w,c
  4492  00089E  1835               	xorwf	___fladd@aexp^0,w,c
  4493  0008A0  B4D8               	btfsc	status,2,c
  4494  0008A2  EF55  F004         	goto	u2171
  4495  0008A6  EF57  F004         	goto	u2170
  4496  0008AA                     u2171:
  4497  0008AA  EF58  F004         	goto	l2371
  4498  0008AE                     u2170:
  4499  0008AE  8C34               	bsf	___fladd@signs^0,6,c
  4500  0008B0                     l2371:
  4501  0008B0  502F               	movf	(___fladd@a+3)^0,w,c
  4502  0008B2  242F               	addwf	(___fladd@a+3)^0,w,c
  4503  0008B4  6E35               	movwf	___fladd@aexp^0,c
  4504  0008B6  AE2E               	btfss	(___fladd@a+2)^0,7,c
  4505  0008B8  EF60  F004         	goto	u2181
  4506  0008BC  EF62  F004         	goto	u2180
  4507  0008C0                     u2181:
  4508  0008C0  EF63  F004         	goto	l2377
  4509  0008C4                     u2180:
  4510  0008C4  8035               	bsf	___fladd@aexp^0,0,c
  4511  0008C6                     l2377:
  4512  0008C6  5035               	movf	___fladd@aexp^0,w,c
  4513  0008C8  B4D8               	btfsc	status,2,c
  4514  0008CA  EF69  F004         	goto	u2191
  4515  0008CE  EF6B  F004         	goto	u2190
  4516  0008D2                     u2191:
  4517  0008D2  EF80  F004         	goto	l2387
  4518  0008D6                     u2190:
  4519  0008D6  2835               	incf	___fladd@aexp^0,w,c
  4520  0008D8  A4D8               	btfss	status,2,c
  4521  0008DA  EF71  F004         	goto	u2201
  4522  0008DE  EF73  F004         	goto	u2200
  4523  0008E2                     u2201:
  4524  0008E2  EF7B  F004         	goto	l2383
  4525  0008E6                     u2200:
  4526  0008E6  0E00               	movlw	0
  4527  0008E8  6E2C               	movwf	___fladd@a^0,c
  4528  0008EA  0E00               	movlw	0
  4529  0008EC  6E2D               	movwf	(___fladd@a+1)^0,c
  4530  0008EE  0E00               	movlw	0
  4531  0008F0  6E2E               	movwf	(___fladd@a+2)^0,c
  4532  0008F2  0E00               	movlw	0
  4533  0008F4  6E2F               	movwf	(___fladd@a+3)^0,c
  4534  0008F6                     l2383:
  4535  0008F6  8E2E               	bsf	(___fladd@a+2)^0,7,c
  4536  0008F8  0E00               	movlw	0
  4537  0008FA  6E2F               	movwf	(___fladd@a+3)^0,c
  4538  0008FC  EF88  F004         	goto	l2389
  4539  000900                     l2387:
  4540  000900  0E00               	movlw	0
  4541  000902  6E2C               	movwf	___fladd@a^0,c
  4542  000904  0E00               	movlw	0
  4543  000906  6E2D               	movwf	(___fladd@a+1)^0,c
  4544  000908  0E00               	movlw	0
  4545  00090A  6E2E               	movwf	(___fladd@a+2)^0,c
  4546  00090C  0E00               	movlw	0
  4547  00090E  6E2F               	movwf	(___fladd@a+3)^0,c
  4548  000910                     l2389:
  4549  000910  5036               	movf	___fladd@bexp^0,w,c
  4550  000912  5C35               	subwf	___fladd@aexp^0,w,c
  4551  000914  B0D8               	btfsc	status,0,c
  4552  000916  EF8F  F004         	goto	u2211
  4553  00091A  EF91  F004         	goto	u2210
  4554  00091E                     u2211:
  4555  00091E  EFB8  F004         	goto	l2425
  4556  000922                     u2210:
  4557  000922  AC34               	btfss	___fladd@signs^0,6,c
  4558  000924  EF96  F004         	goto	u2221
  4559  000928  EF98  F004         	goto	u2220
  4560  00092C                     u2221:
  4561  00092C  EF9A  F004         	goto	l2395
  4562  000930                     u2220:
  4563  000930  0E80               	movlw	128
  4564  000932  1A34               	xorwf	___fladd@signs^0,f,c
  4565  000934                     l2395:
  4566  000934  C036  F037         	movff	___fladd@bexp,___fladd@grs
  4567  000938  C035  F036         	movff	___fladd@aexp,___fladd@bexp
  4568  00093C  C037  F035         	movff	___fladd@grs,___fladd@aexp
  4569  000940  C028  F037         	movff	___fladd@b,___fladd@grs
  4570  000944  C02C  F028         	movff	___fladd@a,___fladd@b
  4571  000948  C037  F02C         	movff	___fladd@grs,___fladd@a
  4572  00094C  C029  F037         	movff	___fladd@b+1,___fladd@grs
  4573  000950  C02D  F029         	movff	___fladd@a+1,___fladd@b+1
  4574  000954  C037  F02D         	movff	___fladd@grs,___fladd@a+1
  4575  000958  C02A  F037         	movff	___fladd@b+2,___fladd@grs
  4576  00095C  C02E  F02A         	movff	___fladd@a+2,___fladd@b+2
  4577  000960  C037  F02E         	movff	___fladd@grs,___fladd@a+2
  4578  000964  C02B  F037         	movff	___fladd@b+3,___fladd@grs
  4579  000968  C02F  F02B         	movff	___fladd@a+3,___fladd@b+3
  4580  00096C  C037  F02F         	movff	___fladd@grs,___fladd@a+3
  4581  000970                     l2425:
  4582  000970  0E00               	movlw	0
  4583  000972  6E37               	movwf	___fladd@grs^0,c
  4584  000974  5036               	movf	___fladd@bexp^0,w,c
  4585  000976  C035  F030         	movff	___fladd@aexp,??___fladd
  4586  00097A  6A31               	clrf	(??___fladd+1)^0,c
  4587  00097C  5E30               	subwf	??___fladd^0,f,c
  4588  00097E  0E00               	movlw	0
  4589  000980  5A31               	subwfb	(??___fladd+1)^0,f,c
  4590  000982  BE31               	btfsc	(??___fladd+1)^0,7,c
  4591  000984  EFCD  F004         	goto	u2231
  4592  000988  5031               	movf	(??___fladd+1)^0,w,c
  4593  00098A  E109               	bnz	u2230
  4594  00098C  0E1A               	movlw	26
  4595  00098E  5C30               	subwf	??___fladd^0,w,c
  4596  000990  A0D8               	btfss	status,0,c
  4597  000992  EFCD  F004         	goto	u2231
  4598  000996  EFCF  F004         	goto	u2230
  4599  00099A                     u2231:
  4600  00099A  EF06  F005         	goto	l763
  4601  00099E                     u2230:
  4602  00099E  5028               	movf	___fladd@b^0,w,c
  4603  0009A0  1029               	iorwf	(___fladd@b+1)^0,w,c
  4604  0009A2  102A               	iorwf	(___fladd@b+2)^0,w,c
  4605  0009A4  102B               	iorwf	(___fladd@b+3)^0,w,c
  4606  0009A6  A4D8               	btfss	status,2,c
  4607  0009A8  EFD8  F004         	goto	u2241
  4608  0009AC  EFDB  F004         	goto	u2240
  4609  0009B0                     u2241:
  4610  0009B0  0E01               	movlw	1
  4611  0009B2  EFDC  F004         	goto	u2250
  4612  0009B6                     u2240:
  4613  0009B6  0E00               	movlw	0
  4614  0009B8                     u2250:
  4615  0009B8  6E37               	movwf	___fladd@grs^0,c
  4616  0009BA  0E00               	movlw	0
  4617  0009BC  6E28               	movwf	___fladd@b^0,c
  4618  0009BE  0E00               	movlw	0
  4619  0009C0  6E29               	movwf	(___fladd@b+1)^0,c
  4620  0009C2  0E00               	movlw	0
  4621  0009C4  6E2A               	movwf	(___fladd@b+2)^0,c
  4622  0009C6  0E00               	movlw	0
  4623  0009C8  6E2B               	movwf	(___fladd@b+3)^0,c
  4624  0009CA  C035  F036         	movff	___fladd@aexp,___fladd@bexp
  4625  0009CE  EF0F  F005         	goto	l762
  4626  0009D2                     l764:
  4627  0009D2  A037               	btfss	___fladd@grs^0,0,c
  4628  0009D4  EFEE  F004         	goto	u2261
  4629  0009D8  EFF0  F004         	goto	u2260
  4630  0009DC                     u2261:
  4631  0009DC  EFF6  F004         	goto	l2437
  4632  0009E0                     u2260:
  4633  0009E0  90D8               	bcf	status,0,c
  4634  0009E2  3037               	rrcf	___fladd@grs^0,w,c
  4635  0009E4  0901               	iorlw	1
  4636  0009E6  6E37               	movwf	___fladd@grs^0,c
  4637  0009E8  EFF8  F004         	goto	l2439
  4638  0009EC                     l2437:
  4639  0009EC  90D8               	bcf	status,0,c
  4640  0009EE  3237               	rrcf	___fladd@grs^0,f,c
  4641  0009F0                     l2439:
  4642  0009F0  A028               	btfss	___fladd@b^0,0,c
  4643  0009F2  EFFD  F004         	goto	u2271
  4644  0009F6  EFFF  F004         	goto	u2270
  4645  0009FA                     u2271:
  4646  0009FA  EF00  F005         	goto	l2443
  4647  0009FE                     u2270:
  4648  0009FE  8E37               	bsf	___fladd@grs^0,7,c
  4649  000A00                     l2443:
  4650  000A00  342B               	rlcf	(___fladd@b+3)^0,w,c
  4651  000A02  322B               	rrcf	(___fladd@b+3)^0,f,c
  4652  000A04  322A               	rrcf	(___fladd@b+2)^0,f,c
  4653  000A06  3229               	rrcf	(___fladd@b+1)^0,f,c
  4654  000A08  3228               	rrcf	___fladd@b^0,f,c
  4655  000A0A  2A36               	incf	___fladd@bexp^0,f,c
  4656  000A0C                     l763:
  4657  000A0C  5035               	movf	___fladd@aexp^0,w,c
  4658  000A0E  5C36               	subwf	___fladd@bexp^0,w,c
  4659  000A10  A0D8               	btfss	status,0,c
  4660  000A12  EF0D  F005         	goto	u2281
  4661  000A16  EF0F  F005         	goto	u2280
  4662  000A1A                     u2281:
  4663  000A1A  EFE9  F004         	goto	l764
  4664  000A1E                     u2280:
  4665  000A1E                     l762:
  4666  000A1E  BC34               	btfsc	___fladd@signs^0,6,c
  4667  000A20  EF14  F005         	goto	u2291
  4668  000A24  EF16  F005         	goto	u2290
  4669  000A28                     u2291:
  4670  000A28  EF56  F005         	goto	l2471
  4671  000A2C                     u2290:
  4672  000A2C  5036               	movf	___fladd@bexp^0,w,c
  4673  000A2E  A4D8               	btfss	status,2,c
  4674  000A30  EF1C  F005         	goto	u2301
  4675  000A34  EF1E  F005         	goto	u2300
  4676  000A38                     u2301:
  4677  000A38  EF28  F005         	goto	l2453
  4678  000A3C                     u2300:
  4679  000A3C  0E00               	movlw	0
  4680  000A3E  6E28               	movwf	?___fladd^0,c
  4681  000A40  0E00               	movlw	0
  4682  000A42  6E29               	movwf	(?___fladd+1)^0,c
  4683  000A44  0E00               	movlw	0
  4684  000A46  6E2A               	movwf	(?___fladd+2)^0,c
  4685  000A48  0E00               	movlw	0
  4686  000A4A  6E2B               	movwf	(?___fladd+3)^0,c
  4687  000A4C  EF77  F006         	goto	l771
  4688  000A50                     l2453:
  4689  000A50  502C               	movf	___fladd@a^0,w,c
  4690  000A52  2628               	addwf	___fladd@b^0,f,c
  4691  000A54  502D               	movf	(___fladd@a+1)^0,w,c
  4692  000A56  2229               	addwfc	(___fladd@b+1)^0,f,c
  4693  000A58  502E               	movf	(___fladd@a+2)^0,w,c
  4694  000A5A  222A               	addwfc	(___fladd@b+2)^0,f,c
  4695  000A5C  502F               	movf	(___fladd@a+3)^0,w,c
  4696  000A5E  222B               	addwfc	(___fladd@b+3)^0,f,c
  4697  000A60  A02B               	btfss	(___fladd@b+3)^0,0,c
  4698  000A62  EF35  F005         	goto	u2311
  4699  000A66  EF37  F005         	goto	u2310
  4700  000A6A                     u2311:
  4701  000A6A  EFE3  F005         	goto	l2507
  4702  000A6E                     u2310:
  4703  000A6E  A037               	btfss	___fladd@grs^0,0,c
  4704  000A70  EF3C  F005         	goto	u2321
  4705  000A74  EF3E  F005         	goto	u2320
  4706  000A78                     u2321:
  4707  000A78  EF44  F005         	goto	l2461
  4708  000A7C                     u2320:
  4709  000A7C  90D8               	bcf	status,0,c
  4710  000A7E  3037               	rrcf	___fladd@grs^0,w,c
  4711  000A80  0901               	iorlw	1
  4712  000A82  6E37               	movwf	___fladd@grs^0,c
  4713  000A84  EF46  F005         	goto	l2463
  4714  000A88                     l2461:
  4715  000A88  90D8               	bcf	status,0,c
  4716  000A8A  3237               	rrcf	___fladd@grs^0,f,c
  4717  000A8C                     l2463:
  4718  000A8C  A028               	btfss	___fladd@b^0,0,c
  4719  000A8E  EF4B  F005         	goto	u2331
  4720  000A92  EF4D  F005         	goto	u2330
  4721  000A96                     u2331:
  4722  000A96  EF4E  F005         	goto	l2467
  4723  000A9A                     u2330:
  4724  000A9A  8E37               	bsf	___fladd@grs^0,7,c
  4725  000A9C                     l2467:
  4726  000A9C  342B               	rlcf	(___fladd@b+3)^0,w,c
  4727  000A9E  322B               	rrcf	(___fladd@b+3)^0,f,c
  4728  000AA0  322A               	rrcf	(___fladd@b+2)^0,f,c
  4729  000AA2  3229               	rrcf	(___fladd@b+1)^0,f,c
  4730  000AA4  3228               	rrcf	___fladd@b^0,f,c
  4731  000AA6  2A36               	incf	___fladd@bexp^0,f,c
  4732  000AA8  EFE3  F005         	goto	l2507
  4733  000AAC                     l2471:
  4734  000AAC  502C               	movf	___fladd@a^0,w,c
  4735  000AAE  5C28               	subwf	___fladd@b^0,w,c
  4736  000AB0  502D               	movf	(___fladd@a+1)^0,w,c
  4737  000AB2  5829               	subwfb	(___fladd@b+1)^0,w,c
  4738  000AB4  502E               	movf	(___fladd@a+2)^0,w,c
  4739  000AB6  582A               	subwfb	(___fladd@b+2)^0,w,c
  4740  000AB8  502B               	movf	(___fladd@b+3)^0,w,c
  4741  000ABA  0A80               	xorlw	128
  4742  000ABC  6E30               	movwf	??___fladd^0,c
  4743  000ABE  502F               	movf	(___fladd@a+3)^0,w,c
  4744  000AC0  0A80               	xorlw	128
  4745  000AC2  5830               	subwfb	??___fladd^0,w,c
  4746  000AC4  B0D8               	btfsc	status,0,c
  4747  000AC6  EF67  F005         	goto	u2341
  4748  000ACA  EF69  F005         	goto	u2340
  4749  000ACE                     u2341:
  4750  000ACE  EF94  F005         	goto	l2481
  4751  000AD2                     u2340:
  4752  000AD2  5028               	movf	___fladd@b^0,w,c
  4753  000AD4  5C2C               	subwf	___fladd@a^0,w,c
  4754  000AD6  6E30               	movwf	??___fladd^0,c
  4755  000AD8  5029               	movf	(___fladd@b+1)^0,w,c
  4756  000ADA  582D               	subwfb	(___fladd@a+1)^0,w,c
  4757  000ADC  6E31               	movwf	(??___fladd+1)^0,c
  4758  000ADE  502A               	movf	(___fladd@b+2)^0,w,c
  4759  000AE0  582E               	subwfb	(___fladd@a+2)^0,w,c
  4760  000AE2  6E32               	movwf	(??___fladd+2)^0,c
  4761  000AE4  502B               	movf	(___fladd@b+3)^0,w,c
  4762  000AE6  582F               	subwfb	(___fladd@a+3)^0,w,c
  4763  000AE8  6E33               	movwf	(??___fladd+3)^0,c
  4764  000AEA  0EFF               	movlw	255
  4765  000AEC  2430               	addwf	??___fladd^0,w,c
  4766  000AEE  6E28               	movwf	___fladd@b^0,c
  4767  000AF0  0EFF               	movlw	255
  4768  000AF2  2031               	addwfc	(??___fladd+1)^0,w,c
  4769  000AF4  6E29               	movwf	(___fladd@b+1)^0,c
  4770  000AF6  0EFF               	movlw	255
  4771  000AF8  2032               	addwfc	(??___fladd+2)^0,w,c
  4772  000AFA  6E2A               	movwf	(___fladd@b+2)^0,c
  4773  000AFC  0EFF               	movlw	255
  4774  000AFE  2033               	addwfc	(??___fladd+3)^0,w,c
  4775  000B00  6E2B               	movwf	(___fladd@b+3)^0,c
  4776  000B02  0E80               	movlw	128
  4777  000B04  1A34               	xorwf	___fladd@signs^0,f,c
  4778  000B06  6C37               	negf	___fladd@grs^0,c
  4779  000B08  5037               	movf	___fladd@grs^0,w,c
  4780  000B0A  A4D8               	btfss	status,2,c
  4781  000B0C  EF8A  F005         	goto	u2351
  4782  000B10  EF8C  F005         	goto	u2350
  4783  000B14                     u2351:
  4784  000B14  EF9C  F005         	goto	l779
  4785  000B18                     u2350:
  4786  000B18  0E01               	movlw	1
  4787  000B1A  2628               	addwf	___fladd@b^0,f,c
  4788  000B1C  0E00               	movlw	0
  4789  000B1E  2229               	addwfc	(___fladd@b+1)^0,f,c
  4790  000B20  222A               	addwfc	(___fladd@b+2)^0,f,c
  4791  000B22  222B               	addwfc	(___fladd@b+3)^0,f,c
  4792  000B24  EF9C  F005         	goto	l779
  4793  000B28                     l2481:
  4794  000B28  502C               	movf	___fladd@a^0,w,c
  4795  000B2A  5E28               	subwf	___fladd@b^0,f,c
  4796  000B2C  502D               	movf	(___fladd@a+1)^0,w,c
  4797  000B2E  5A29               	subwfb	(___fladd@b+1)^0,f,c
  4798  000B30  502E               	movf	(___fladd@a+2)^0,w,c
  4799  000B32  5A2A               	subwfb	(___fladd@b+2)^0,f,c
  4800  000B34  502F               	movf	(___fladd@a+3)^0,w,c
  4801  000B36  5A2B               	subwfb	(___fladd@b+3)^0,f,c
  4802  000B38                     l779:
  4803  000B38  5028               	movf	___fladd@b^0,w,c
  4804  000B3A  1029               	iorwf	(___fladd@b+1)^0,w,c
  4805  000B3C  102A               	iorwf	(___fladd@b+2)^0,w,c
  4806  000B3E  102B               	iorwf	(___fladd@b+3)^0,w,c
  4807  000B40  A4D8               	btfss	status,2,c
  4808  000B42  EFA5  F005         	goto	u2361
  4809  000B46  EFA7  F005         	goto	u2360
  4810  000B4A                     u2361:
  4811  000B4A  EFDC  F005         	goto	l2505
  4812  000B4E                     u2360:
  4813  000B4E  5037               	movf	___fladd@grs^0,w,c
  4814  000B50  A4D8               	btfss	status,2,c
  4815  000B52  EFAD  F005         	goto	u2371
  4816  000B56  EFAF  F005         	goto	u2370
  4817  000B5A                     u2371:
  4818  000B5A  EFDC  F005         	goto	l2505
  4819  000B5E                     u2370:
  4820  000B5E  0E00               	movlw	0
  4821  000B60  6E28               	movwf	?___fladd^0,c
  4822  000B62  0E00               	movlw	0
  4823  000B64  6E29               	movwf	(?___fladd+1)^0,c
  4824  000B66  0E00               	movlw	0
  4825  000B68  6E2A               	movwf	(?___fladd+2)^0,c
  4826  000B6A  0E00               	movlw	0
  4827  000B6C  6E2B               	movwf	(?___fladd+3)^0,c
  4828  000B6E  EF77  F006         	goto	l771
  4829  000B72                     l2489:
  4830  000B72  90D8               	bcf	status,0,c
  4831  000B74  3628               	rlcf	___fladd@b^0,f,c
  4832  000B76  3629               	rlcf	(___fladd@b+1)^0,f,c
  4833  000B78  362A               	rlcf	(___fladd@b+2)^0,f,c
  4834  000B7A  362B               	rlcf	(___fladd@b+3)^0,f,c
  4835  000B7C  AE37               	btfss	___fladd@grs^0,7,c
  4836  000B7E  EFC3  F005         	goto	u2381
  4837  000B82  EFC5  F005         	goto	u2380
  4838  000B86                     u2381:
  4839  000B86  EFC6  F005         	goto	l2495
  4840  000B8A                     u2380:
  4841  000B8A  8028               	bsf	___fladd@b^0,0,c
  4842  000B8C                     l2495:
  4843  000B8C  A037               	btfss	___fladd@grs^0,0,c
  4844  000B8E  EFCB  F005         	goto	u2391
  4845  000B92  EFCD  F005         	goto	u2390
  4846  000B96                     u2391:
  4847  000B96  EFD1  F005         	goto	l2499
  4848  000B9A                     u2390:
  4849  000B9A  80D8               	bsf	status,0,c
  4850  000B9C  3637               	rlcf	___fladd@grs^0,f,c
  4851  000B9E  EFD3  F005         	goto	l2501
  4852  000BA2                     l2499:
  4853  000BA2  90D8               	bcf	status,0,c
  4854  000BA4  3637               	rlcf	___fladd@grs^0,f,c
  4855  000BA6                     l2501:
  4856  000BA6  5036               	movf	___fladd@bexp^0,w,c
  4857  000BA8  B4D8               	btfsc	status,2,c
  4858  000BAA  EFD9  F005         	goto	u2401
  4859  000BAE  EFDB  F005         	goto	u2400
  4860  000BB2                     u2401:
  4861  000BB2  EFDC  F005         	goto	l2505
  4862  000BB6                     u2400:
  4863  000BB6  0636               	decf	___fladd@bexp^0,f,c
  4864  000BB8                     l2505:
  4865  000BB8  AE2A               	btfss	(___fladd@b+2)^0,7,c
  4866  000BBA  EFE1  F005         	goto	u2411
  4867  000BBE  EFE3  F005         	goto	u2410
  4868  000BC2                     u2411:
  4869  000BC2  EFB9  F005         	goto	l2489
  4870  000BC6                     u2410:
  4871  000BC6                     l2507:
  4872  000BC6  0E00               	movlw	0
  4873  000BC8  6E35               	movwf	___fladd@aexp^0,c
  4874  000BCA  AE37               	btfss	___fladd@grs^0,7,c
  4875  000BCC  EFEA  F005         	goto	u2421
  4876  000BD0  EFEC  F005         	goto	u2420
  4877  000BD4                     u2421:
  4878  000BD4  EF04  F006         	goto	l788
  4879  000BD8                     u2420:
  4880  000BD8  C037  F030         	movff	___fladd@grs,??___fladd
  4881  000BDC  0E7F               	movlw	127
  4882  000BDE  1630               	andwf	??___fladd^0,f,c
  4883  000BE0  B4D8               	btfsc	status,2,c
  4884  000BE2  EFF5  F005         	goto	u2431
  4885  000BE6  EFF7  F005         	goto	u2430
  4886  000BEA                     u2431:
  4887  000BEA  EFFB  F005         	goto	l789
  4888  000BEE                     u2430:
  4889  000BEE                     l2513:
  4890  000BEE  0E01               	movlw	1
  4891  000BF0  6E35               	movwf	___fladd@aexp^0,c
  4892  000BF2  EF04  F006         	goto	l788
  4893  000BF6                     l789:
  4894  000BF6  A028               	btfss	___fladd@b^0,0,c
  4895  000BF8  EF00  F006         	goto	u2441
  4896  000BFC  EF02  F006         	goto	u2440
  4897  000C00                     u2441:
  4898  000C00  EF04  F006         	goto	l788
  4899  000C04                     u2440:
  4900  000C04  EFF7  F005         	goto	l2513
  4901  000C08                     l788:
  4902  000C08  5035               	movf	___fladd@aexp^0,w,c
  4903  000C0A  B4D8               	btfsc	status,2,c
  4904  000C0C  EF0A  F006         	goto	u2451
  4905  000C10  EF0C  F006         	goto	u2450
  4906  000C14                     u2451:
  4907  000C14  EF37  F006         	goto	l2525
  4908  000C18                     u2450:
  4909  000C18  0E01               	movlw	1
  4910  000C1A  2628               	addwf	___fladd@b^0,f,c
  4911  000C1C  0E00               	movlw	0
  4912  000C1E  2229               	addwfc	(___fladd@b+1)^0,f,c
  4913  000C20  222A               	addwfc	(___fladd@b+2)^0,f,c
  4914  000C22  222B               	addwfc	(___fladd@b+3)^0,f,c
  4915  000C24  A02B               	btfss	(___fladd@b+3)^0,0,c
  4916  000C26  EF17  F006         	goto	u2461
  4917  000C2A  EF19  F006         	goto	u2460
  4918  000C2E                     u2461:
  4919  000C2E  EF37  F006         	goto	l2525
  4920  000C32                     u2460:
  4921  000C32  C028  F030         	movff	___fladd@b,??___fladd
  4922  000C36  C029  F031         	movff	___fladd@b+1,??___fladd+1
  4923  000C3A  C02A  F032         	movff	___fladd@b+2,??___fladd+2
  4924  000C3E  C02B  F033         	movff	___fladd@b+3,??___fladd+3
  4925  000C42  3433               	rlcf	(??___fladd+3)^0,w,c
  4926  000C44  3233               	rrcf	(??___fladd+3)^0,f,c
  4927  000C46  3232               	rrcf	(??___fladd+2)^0,f,c
  4928  000C48  3231               	rrcf	(??___fladd+1)^0,f,c
  4929  000C4A  3230               	rrcf	??___fladd^0,f,c
  4930  000C4C  C030  F028         	movff	??___fladd,___fladd@b
  4931  000C50  C031  F029         	movff	??___fladd+1,___fladd@b+1
  4932  000C54  C032  F02A         	movff	??___fladd+2,___fladd@b+2
  4933  000C58  C033  F02B         	movff	??___fladd+3,___fladd@b+3
  4934  000C5C  2836               	incf	___fladd@bexp^0,w,c
  4935  000C5E  B4D8               	btfsc	status,2,c
  4936  000C60  EF34  F006         	goto	u2471
  4937  000C64  EF36  F006         	goto	u2470
  4938  000C68                     u2471:
  4939  000C68  EF37  F006         	goto	l2525
  4940  000C6C                     u2470:
  4941  000C6C  2A36               	incf	___fladd@bexp^0,f,c
  4942  000C6E                     l2525:
  4943  000C6E  2836               	incf	___fladd@bexp^0,w,c
  4944  000C70  B4D8               	btfsc	status,2,c
  4945  000C72  EF3D  F006         	goto	u2481
  4946  000C76  EF3F  F006         	goto	u2480
  4947  000C7A                     u2481:
  4948  000C7A  EF47  F006         	goto	l2529
  4949  000C7E                     u2480:
  4950  000C7E  5036               	movf	___fladd@bexp^0,w,c
  4951  000C80  A4D8               	btfss	status,2,c
  4952  000C82  EF45  F006         	goto	u2491
  4953  000C86  EF47  F006         	goto	u2490
  4954  000C8A                     u2491:
  4955  000C8A  EF59  F006         	goto	l2533
  4956  000C8E                     u2490:
  4957  000C8E                     l2529:
  4958  000C8E  0E00               	movlw	0
  4959  000C90  6E28               	movwf	___fladd@b^0,c
  4960  000C92  0E00               	movlw	0
  4961  000C94  6E29               	movwf	(___fladd@b+1)^0,c
  4962  000C96  0E00               	movlw	0
  4963  000C98  6E2A               	movwf	(___fladd@b+2)^0,c
  4964  000C9A  0E00               	movlw	0
  4965  000C9C  6E2B               	movwf	(___fladd@b+3)^0,c
  4966  000C9E  5036               	movf	___fladd@bexp^0,w,c
  4967  000CA0  A4D8               	btfss	status,2,c
  4968  000CA2  EF55  F006         	goto	u2501
  4969  000CA6  EF57  F006         	goto	u2500
  4970  000CAA                     u2501:
  4971  000CAA  EF59  F006         	goto	l2533
  4972  000CAE                     u2500:
  4973  000CAE  0E00               	movlw	0
  4974  000CB0  6E34               	movwf	___fladd@signs^0,c
  4975  000CB2                     l2533:
  4976  000CB2  A036               	btfss	___fladd@bexp^0,0,c
  4977  000CB4  EF5E  F006         	goto	u2511
  4978  000CB8  EF60  F006         	goto	u2510
  4979  000CBC                     u2511:
  4980  000CBC  EF63  F006         	goto	l2537
  4981  000CC0                     u2510:
  4982  000CC0  8E2A               	bsf	(___fladd@b+2)^0,7,c
  4983  000CC2  EF64  F006         	goto	l2539
  4984  000CC6                     l2537:
  4985  000CC6  9E2A               	bcf	(___fladd@b+2)^0,7,c
  4986  000CC8                     l2539:
  4987  000CC8  90D8               	bcf	status,0,c
  4988  000CCA  3036               	rrcf	___fladd@bexp^0,w,c
  4989  000CCC  6E2B               	movwf	(___fladd@b+3)^0,c
  4990  000CCE  AE34               	btfss	___fladd@signs^0,7,c
  4991  000CD0  EF6C  F006         	goto	u2521
  4992  000CD4  EF6E  F006         	goto	u2520
  4993  000CD8                     u2521:
  4994  000CD8  EF6F  F006         	goto	l2545
  4995  000CDC                     u2520:
  4996  000CDC  8E2B               	bsf	(___fladd@b+3)^0,7,c
  4997  000CDE                     l2545:
  4998  000CDE  C028  F028         	movff	___fladd@b,?___fladd
  4999  000CE2  C029  F029         	movff	___fladd@b+1,?___fladd+1
  5000  000CE6  C02A  F02A         	movff	___fladd@b+2,?___fladd+2
  5001  000CEA  C02B  F02B         	movff	___fladd@b+3,?___fladd+3
  5002  000CEE                     l771:
  5003  000CEE  0012               	return		;funcret
  5004  000CF0                     __end_of___fladd:
  5005                           	callstack 0
  5006                           
  5007 ;; *************** function _LCD_String_xy *****************
  5008 ;; Defined at:
  5009 ;;		line 57 in file "LCD_20x4_C_file.c"
  5010 ;; Parameters:    Size  Location     Type
  5011 ;;  row             1    wreg     unsigned char 
  5012 ;;  pos             1    9[COMRAM] unsigned char 
  5013 ;;  str             2   10[COMRAM] PTR const unsigned char 
  5014 ;;		 -> STR_7(11), STR_4(7), STR_2(7), STR_1(7), 
  5015 ;; Auto vars:     Size  Location     Type
  5016 ;;  row             1   12[COMRAM] unsigned char 
  5017 ;; Return value:  Size  Location     Type
  5018 ;;                  1    wreg      void 
  5019 ;; Registers used:
  5020 ;;		wreg, fsr0l, fsr0h, status,2, status,0, tblptrl, tblptrh, tblptru, cstack
  5021 ;; Tracked objects:
  5022 ;;		On entry : 0/0
  5023 ;;		On exit  : 0/0
  5024 ;;		Unchanged: 0/0
  5025 ;; Data sizes:     COMRAM   BANK0   BANK1   BANK2   BANK3   BANK4   BANK5   BANK6   BANK7
  5026 ;;      Params:         3       0       0       0       0       0       0       0       0
  5027 ;;      Locals:         1       0       0       0       0       0       0       0       0
  5028 ;;      Temps:          0       0       0       0       0       0       0       0       0
  5029 ;;      Totals:         4       0       0       0       0       0       0       0       0
  5030 ;;Total ram usage:        4 bytes
  5031 ;; Hardware stack levels used:    1
  5032 ;; Hardware stack levels required when called:    3
  5033 ;; This function calls:
  5034 ;;		_LCD_Command
  5035 ;;		_LCD_String
  5036 ;; This function is called by:
  5037 ;;		_main
  5038 ;; This function uses a non-reentrant model
  5039 ;;
  5040                           
  5041                           	psect	text23
  5042  00211C                     __ptext23:
  5043                           	callstack 0
  5044  00211C                     _LCD_String_xy:
  5045                           	callstack 27
  5046                           
  5047                           ;incstack = 0
  5048                           ;LCD_String_xy@row stored from wreg
  5049  00211C  6E0D               	movwf	LCD_String_xy@row^0,c
  5050  00211E                     
  5051                           ;LCD_20x4_C_file.c: 57: void LCD_String_xy (char row, char pos,const char *str);LCD_20x4
      +                          _C_file.c: 58: {;LCD_20x4_C_file.c: 59:  if (row == 1)
  5052  00211E  040D               	decf	LCD_String_xy@row^0,w,c
  5053  002120  A4D8               	btfss	status,2,c
  5054  002122  EF95  F010         	goto	u3011
  5055  002126  EF97  F010         	goto	u3010
  5056  00212A                     u3011:
  5057  00212A  EF9E  F010         	goto	l2849
  5058  00212E                     u3010:
  5059  00212E                     
  5060                           ;LCD_20x4_C_file.c: 60:   LCD_Command((pos & 0x0F)|0x80);
  5061  00212E  500A               	movf	LCD_String_xy@pos^0,w,c
  5062  002130  0B0F               	andlw	15
  5063  002132  0980               	iorlw	128
  5064  002134  ECF4  F012         	call	_LCD_Command
  5065  002138  EFCE  F010         	goto	l2861
  5066  00213C                     l2849:
  5067  00213C  0E02               	movlw	2
  5068  00213E  180D               	xorwf	LCD_String_xy@row^0,w,c
  5069  002140  A4D8               	btfss	status,2,c
  5070  002142  EFA5  F010         	goto	u3021
  5071  002146  EFA7  F010         	goto	u3020
  5072  00214A                     u3021:
  5073  00214A  EFAE  F010         	goto	l2853
  5074  00214E                     u3020:
  5075  00214E                     
  5076                           ;LCD_20x4_C_file.c: 62:   LCD_Command((pos & 0x0F)|0xC0);
  5077  00214E  500A               	movf	LCD_String_xy@pos^0,w,c
  5078  002150  0B0F               	andlw	15
  5079  002152  09C0               	iorlw	192
  5080  002154  ECF4  F012         	call	_LCD_Command
  5081  002158  EFCE  F010         	goto	l2861
  5082  00215C                     l2853:
  5083  00215C  0E03               	movlw	3
  5084  00215E  180D               	xorwf	LCD_String_xy@row^0,w,c
  5085  002160  A4D8               	btfss	status,2,c
  5086  002162  EFB5  F010         	goto	u3031
  5087  002166  EFB7  F010         	goto	u3030
  5088  00216A                     u3031:
  5089  00216A  EFBE  F010         	goto	l2857
  5090  00216E                     u3030:
  5091  00216E                     
  5092                           ;LCD_20x4_C_file.c: 64:   LCD_Command((pos & 0x0F)|0x94);
  5093  00216E  500A               	movf	LCD_String_xy@pos^0,w,c
  5094  002170  0B0F               	andlw	15
  5095  002172  0994               	iorlw	148
  5096  002174  ECF4  F012         	call	_LCD_Command
  5097  002178  EFCE  F010         	goto	l2861
  5098  00217C                     l2857:
  5099  00217C  0E04               	movlw	4
  5100  00217E  180D               	xorwf	LCD_String_xy@row^0,w,c
  5101  002180  A4D8               	btfss	status,2,c
  5102  002182  EFC5  F010         	goto	u3041
  5103  002186  EFC7  F010         	goto	u3040
  5104  00218A                     u3041:
  5105  00218A  EFCE  F010         	goto	l107
  5106  00218E                     u3040:
  5107  00218E                     
  5108                           ;LCD_20x4_C_file.c: 66:   LCD_Command((pos & 0x0F)|0xD4);
  5109  00218E  500A               	movf	LCD_String_xy@pos^0,w,c
  5110  002190  0B0F               	andlw	15
  5111  002192  09D4               	iorlw	212
  5112  002194  ECF4  F012         	call	_LCD_Command
  5113  002198  EFCE  F010         	goto	l2861
  5114  00219C                     l107:
  5115  00219C                     l2861:
  5116                           
  5117                           ;LCD_20x4_C_file.c: 67:  LCD_String(str);
  5118  00219C  C00B  F008         	movff	LCD_String_xy@str,LCD_String@str
  5119  0021A0  C00C  F009         	movff	LCD_String_xy@str+1,LCD_String@str+1
  5120  0021A4  EC06  F011         	call	_LCD_String	;wreg free
  5121  0021A8  0012               	return		;funcret
  5122  0021AA                     __end_of_LCD_String_xy:
  5123                           	callstack 0
  5124                           
  5125 ;; *************** function _LCD_String *****************
  5126 ;; Defined at:
  5127 ;;		line 47 in file "LCD_20x4_C_file.c"
  5128 ;; Parameters:    Size  Location     Type
  5129 ;;  str             2    7[COMRAM] PTR const unsigned char 
  5130 ;;		 -> STR_7(11), STR_4(7), main@value(10), STR_2(7), 
  5131 ;;		 -> STR_1(7), 
  5132 ;; Auto vars:     Size  Location     Type
  5133 ;;  i               2    0        int 
  5134 ;; Return value:  Size  Location     Type
  5135 ;;                  1    wreg      void 
  5136 ;; Registers used:
  5137 ;;		wreg, fsr0l, fsr0h, status,2, status,0, tblptrl, tblptrh, tblptru, cstack
  5138 ;; Tracked objects:
  5139 ;;		On entry : 0/0
  5140 ;;		On exit  : 0/0
  5141 ;;		Unchanged: 0/0
  5142 ;; Data sizes:     COMRAM   BANK0   BANK1   BANK2   BANK3   BANK4   BANK5   BANK6   BANK7
  5143 ;;      Params:         2       0       0       0       0       0       0       0       0
  5144 ;;      Locals:         0       0       0       0       0       0       0       0       0
  5145 ;;      Temps:          0       0       0       0       0       0       0       0       0
  5146 ;;      Totals:         2       0       0       0       0       0       0       0       0
  5147 ;;Total ram usage:        2 bytes
  5148 ;; Hardware stack levels used:    1
  5149 ;; Hardware stack levels required when called:    2
  5150 ;; This function calls:
  5151 ;;		_LCD_Char
  5152 ;; This function is called by:
  5153 ;;		_main
  5154 ;;		_LCD_String_xy
  5155 ;; This function uses a non-reentrant model
  5156 ;;
  5157                           
  5158                           	psect	text24
  5159  00220C                     __ptext24:
  5160                           	callstack 0
  5161  00220C                     _LCD_String:
  5162                           	callstack 27
  5163  00220C                     
  5164                           ;LCD_20x4_C_file.c: 47: void LCD_String (const char *str);LCD_20x4_C_file.c: 48: {;LCD_2
      +                          0x4_C_file.c: 49:  int i;;LCD_20x4_C_file.c: 50:  while((*str)!=0)
  5165  00220C  EF1C  F011         	goto	l2323
  5166  002210                     l2319:
  5167                           
  5168                           ;LCD_20x4_C_file.c: 51:  {;LCD_20x4_C_file.c: 52:   LCD_Char (*str);
  5169  002210  C008  FFF6         	movff	LCD_String@str,tblptrl
  5170  002214  C009  FFF7         	movff	LCD_String@str+1,tblptrh
  5171  002218  6AF8               	clrf	tblptru,c
  5172  00221A  0E07               	movlw	(high __ramtop+-1)
  5173  00221C  64F7               	cpfsgt	tblptrh,c
  5174  00221E  D003               	bra	u2087
  5175  002220  0008               	tblrd		*
  5176  002222  50F5               	movf	tablat,w,c
  5177  002224  D005               	bra	u2080
  5178  002226                     u2087:
  5179  002226  CFF6 FFE9          	movff	tblptrl,fsr0l
  5180  00222A  CFF7 FFEA          	movff	tblptrh,fsr0h
  5181  00222E  50EF               	movf	indf0,w,c
  5182  002230                     u2080:
  5183  002230  ECE5  F012         	call	_LCD_Char
  5184  002234                     
  5185                           ;LCD_20x4_C_file.c: 53:         str++;
  5186  002234  4A08               	infsnz	LCD_String@str^0,f,c
  5187  002236  2A09               	incf	(LCD_String@str+1)^0,f,c
  5188  002238                     l2323:
  5189                           
  5190                           ;LCD_20x4_C_file.c: 50:  while((*str)!=0)
  5191  002238  C008  FFF6         	movff	LCD_String@str,tblptrl
  5192  00223C  C009  FFF7         	movff	LCD_String@str+1,tblptrh
  5193  002240  6AF8               	clrf	tblptru,c
  5194  002242  0E07               	movlw	(high __ramtop+-1)
  5195  002244  64F7               	cpfsgt	tblptrh,c
  5196  002246  D003               	bra	u2097
  5197  002248  0008               	tblrd		*
  5198  00224A  50F5               	movf	tablat,w,c
  5199  00224C  D005               	bra	u2090
  5200  00224E                     u2097:
  5201  00224E  CFF6 FFE9          	movff	tblptrl,fsr0l
  5202  002252  CFF7 FFEA          	movff	tblptrh,fsr0h
  5203  002256  50EF               	movf	indf0,w,c
  5204  002258                     u2090:
  5205  002258  0900               	iorlw	0
  5206  00225A  A4D8               	btfss	status,2,c
  5207  00225C  EF32  F011         	goto	u2101
  5208  002260  EF34  F011         	goto	u2100
  5209  002264                     u2101:
  5210  002264  EF08  F011         	goto	l2319
  5211  002268                     u2100:
  5212  002268  0012               	return		;funcret
  5213  00226A                     __end_of_LCD_String:
  5214                           	callstack 0
  5215                           
  5216 ;; *************** function _LCD_Char *****************
  5217 ;; Defined at:
  5218 ;;		line 22 in file "LCD_20x4_C_file.c"
  5219 ;; Parameters:    Size  Location     Type
  5220 ;;  char_data       1    wreg     unsigned char 
  5221 ;; Auto vars:     Size  Location     Type
  5222 ;;  char_data       1    6[COMRAM] unsigned char 
  5223 ;; Return value:  Size  Location     Type
  5224 ;;                  1    wreg      void 
  5225 ;; Registers used:
  5226 ;;		wreg, status,2, status,0, cstack
  5227 ;; Tracked objects:
  5228 ;;		On entry : 0/0
  5229 ;;		On exit  : 0/0
  5230 ;;		Unchanged: 0/0
  5231 ;; Data sizes:     COMRAM   BANK0   BANK1   BANK2   BANK3   BANK4   BANK5   BANK6   BANK7
  5232 ;;      Params:         0       0       0       0       0       0       0       0       0
  5233 ;;      Locals:         1       0       0       0       0       0       0       0       0
  5234 ;;      Temps:          0       0       0       0       0       0       0       0       0
  5235 ;;      Totals:         1       0       0       0       0       0       0       0       0
  5236 ;;Total ram usage:        1 bytes
  5237 ;; Hardware stack levels used:    1
  5238 ;; Hardware stack levels required when called:    1
  5239 ;; This function calls:
  5240 ;;		_MSdelay
  5241 ;; This function is called by:
  5242 ;;		_main
  5243 ;;		_LCD_String
  5244 ;; This function uses a non-reentrant model
  5245 ;;
  5246                           
  5247                           	psect	text25
  5248  0025CA                     __ptext25:
  5249                           	callstack 0
  5250  0025CA                     _LCD_Char:
  5251                           	callstack 27
  5252                           
  5253                           ;incstack = 0
  5254                           ;LCD_Char@char_data stored from wreg
  5255  0025CA  6E07               	movwf	LCD_Char@char_data^0,c
  5256  0025CC                     
  5257                           ;LCD_20x4_C_file.c: 22: void LCD_Char (char char_data);LCD_20x4_C_file.c: 23: {;LCD_20x4
      +                          _C_file.c: 24:  LATD = char_data;
  5258  0025CC  C007  FF8C         	movff	LCD_Char@char_data,3980	;volatile
  5259  0025D0                     
  5260                           ;LCD_20x4_C_file.c: 25:  LATC0 = 1;
  5261  0025D0  808B               	bsf	3979,0,c	;volatile
  5262  0025D2                     
  5263                           ;LCD_20x4_C_file.c: 26:  LATC1 = 0;
  5264  0025D2  928B               	bcf	3979,1,c	;volatile
  5265  0025D4                     
  5266                           ;LCD_20x4_C_file.c: 27:     LATC2 = 1;
  5267  0025D4  848B               	bsf	3979,2,c	;volatile
  5268  0025D6                     
  5269                           ;LCD_20x4_C_file.c: 28:  __nop();
  5270  0025D6  F000               	nop	
  5271  0025D8                     
  5272                           ;LCD_20x4_C_file.c: 29:  LATC2 = 0;
  5273  0025D8  948B               	bcf	3979,2,c	;volatile
  5274  0025DA                     
  5275                           ;LCD_20x4_C_file.c: 30:  MSdelay(3);
  5276  0025DA  0E00               	movlw	0
  5277  0025DC  6E02               	movwf	(MSdelay@val+1)^0,c
  5278  0025DE  0E03               	movlw	3
  5279  0025E0  6E01               	movwf	MSdelay@val^0,c
  5280  0025E2  ECE1  F011         	call	_MSdelay	;wreg free
  5281  0025E6  0012               	return		;funcret
  5282  0025E8                     __end_of_LCD_Char:
  5283                           	callstack 0
  5284                           
  5285 ;; *************** function _LCD_Init *****************
  5286 ;; Defined at:
  5287 ;;		line 33 in file "LCD_20x4_C_file.c"
  5288 ;; Parameters:    Size  Location     Type
  5289 ;;		None
  5290 ;; Auto vars:     Size  Location     Type
  5291 ;;		None
  5292 ;; Return value:  Size  Location     Type
  5293 ;;                  1    wreg      void 
  5294 ;; Registers used:
  5295 ;;		wreg, status,2, status,0, cstack
  5296 ;; Tracked objects:
  5297 ;;		On entry : 0/0
  5298 ;;		On exit  : 0/0
  5299 ;;		Unchanged: 0/0
  5300 ;; Data sizes:     COMRAM   BANK0   BANK1   BANK2   BANK3   BANK4   BANK5   BANK6   BANK7
  5301 ;;      Params:         0       0       0       0       0       0       0       0       0
  5302 ;;      Locals:         0       0       0       0       0       0       0       0       0
  5303 ;;      Temps:          0       0       0       0       0       0       0       0       0
  5304 ;;      Totals:         0       0       0       0       0       0       0       0       0
  5305 ;;Total ram usage:        0 bytes
  5306 ;; Hardware stack levels used:    1
  5307 ;; Hardware stack levels required when called:    2
  5308 ;; This function calls:
  5309 ;;		_LCD_Command
  5310 ;;		_MSdelay
  5311 ;; This function is called by:
  5312 ;;		_main
  5313 ;; This function uses a non-reentrant model
  5314 ;;
  5315                           
  5316                           	psect	text26
  5317  002490                     __ptext26:
  5318                           	callstack 0
  5319  002490                     _LCD_Init:
  5320                           	callstack 28
  5321  002490                     
  5322                           ;LCD_20x4_C_file.c: 35:  TRISC = 0;
  5323  002490  0E00               	movlw	0
  5324  002492  6E94               	movwf	148,c	;volatile
  5325                           
  5326                           ;LCD_20x4_C_file.c: 36:  TRISD = 0;
  5327  002494  0E00               	movlw	0
  5328  002496  6E95               	movwf	149,c	;volatile
  5329  002498                     
  5330                           ;LCD_20x4_C_file.c: 38:  MSdelay(20);
  5331  002498  0E00               	movlw	0
  5332  00249A  6E02               	movwf	(MSdelay@val+1)^0,c
  5333  00249C  0E14               	movlw	20
  5334  00249E  6E01               	movwf	MSdelay@val^0,c
  5335  0024A0  ECE1  F011         	call	_MSdelay	;wreg free
  5336  0024A4                     
  5337                           ;LCD_20x4_C_file.c: 39:  LCD_Command (0x38);
  5338  0024A4  0E38               	movlw	56
  5339  0024A6  ECF4  F012         	call	_LCD_Command
  5340  0024AA                     
  5341                           ;LCD_20x4_C_file.c: 40:  LCD_Command (0x0C);
  5342  0024AA  0E0C               	movlw	12
  5343  0024AC  ECF4  F012         	call	_LCD_Command
  5344  0024B0                     
  5345                           ;LCD_20x4_C_file.c: 41:  LCD_Command (0x06);
  5346  0024B0  0E06               	movlw	6
  5347  0024B2  ECF4  F012         	call	_LCD_Command
  5348  0024B6                     
  5349                           ;LCD_20x4_C_file.c: 42:  LCD_Command (0x01);
  5350  0024B6  0E01               	movlw	1
  5351  0024B8  ECF4  F012         	call	_LCD_Command
  5352  0024BC                     
  5353                           ;LCD_20x4_C_file.c: 43:  MSdelay(3);
  5354  0024BC  0E00               	movlw	0
  5355  0024BE  6E02               	movwf	(MSdelay@val+1)^0,c
  5356  0024C0  0E03               	movlw	3
  5357  0024C2  6E01               	movwf	MSdelay@val^0,c
  5358  0024C4  ECE1  F011         	call	_MSdelay	;wreg free
  5359  0024C8                     
  5360                           ;LCD_20x4_C_file.c: 44:  LCD_Command (0x80);
  5361  0024C8  0E80               	movlw	128
  5362  0024CA  ECF4  F012         	call	_LCD_Command
  5363  0024CE  0012               	return		;funcret
  5364  0024D0                     __end_of_LCD_Init:
  5365                           	callstack 0
  5366                           
  5367 ;; *************** function _LCD_Command *****************
  5368 ;; Defined at:
  5369 ;;		line 11 in file "LCD_20x4_C_file.c"
  5370 ;; Parameters:    Size  Location     Type
  5371 ;;  cmd             1    wreg     unsigned char 
  5372 ;; Auto vars:     Size  Location     Type
  5373 ;;  cmd             1    6[COMRAM] unsigned char 
  5374 ;; Return value:  Size  Location     Type
  5375 ;;                  1    wreg      void 
  5376 ;; Registers used:
  5377 ;;		wreg, status,2, status,0, cstack
  5378 ;; Tracked objects:
  5379 ;;		On entry : 0/0
  5380 ;;		On exit  : 0/0
  5381 ;;		Unchanged: 0/0
  5382 ;; Data sizes:     COMRAM   BANK0   BANK1   BANK2   BANK3   BANK4   BANK5   BANK6   BANK7
  5383 ;;      Params:         0       0       0       0       0       0       0       0       0
  5384 ;;      Locals:         1       0       0       0       0       0       0       0       0
  5385 ;;      Temps:          0       0       0       0       0       0       0       0       0
  5386 ;;      Totals:         1       0       0       0       0       0       0       0       0
  5387 ;;Total ram usage:        1 bytes
  5388 ;; Hardware stack levels used:    1
  5389 ;; Hardware stack levels required when called:    1
  5390 ;; This function calls:
  5391 ;;		_MSdelay
  5392 ;; This function is called by:
  5393 ;;		_LCD_Init
  5394 ;;		_LCD_String_xy
  5395 ;;		_LCD_Clear
  5396 ;; This function uses a non-reentrant model
  5397 ;;
  5398                           
  5399                           	psect	text27
  5400  0025E8                     __ptext27:
  5401                           	callstack 0
  5402  0025E8                     _LCD_Command:
  5403                           	callstack 28
  5404                           
  5405                           ;incstack = 0
  5406                           ;LCD_Command@cmd stored from wreg
  5407  0025E8  6E07               	movwf	LCD_Command@cmd^0,c
  5408  0025EA                     
  5409                           ;LCD_20x4_C_file.c: 11: void LCD_Command (char cmd);LCD_20x4_C_file.c: 12: {;LCD_20x4_C_
      +                          file.c: 13:  LATD = cmd;
  5410  0025EA  C007  FF8C         	movff	LCD_Command@cmd,3980	;volatile
  5411  0025EE                     
  5412                           ;LCD_20x4_C_file.c: 14:  LATC0 = 0;
  5413  0025EE  908B               	bcf	3979,0,c	;volatile
  5414  0025F0                     
  5415                           ;LCD_20x4_C_file.c: 15:  LATC1 = 0;
  5416  0025F0  928B               	bcf	3979,1,c	;volatile
  5417  0025F2                     
  5418                           ;LCD_20x4_C_file.c: 16:     LATC2 = 1;
  5419  0025F2  848B               	bsf	3979,2,c	;volatile
  5420  0025F4                     
  5421                           ;LCD_20x4_C_file.c: 17:  __nop();
  5422  0025F4  F000               	nop	
  5423  0025F6                     
  5424                           ;LCD_20x4_C_file.c: 18:  LATC2 = 0;
  5425  0025F6  948B               	bcf	3979,2,c	;volatile
  5426  0025F8                     
  5427                           ;LCD_20x4_C_file.c: 19:  MSdelay(3);
  5428  0025F8  0E00               	movlw	0
  5429  0025FA  6E02               	movwf	(MSdelay@val+1)^0,c
  5430  0025FC  0E03               	movlw	3
  5431  0025FE  6E01               	movwf	MSdelay@val^0,c
  5432  002600  ECE1  F011         	call	_MSdelay	;wreg free
  5433  002604  0012               	return		;funcret
  5434  002606                     __end_of_LCD_Command:
  5435                           	callstack 0
  5436                           
  5437 ;; *************** function _MSdelay *****************
  5438 ;; Defined at:
  5439 ;;		line 78 in file "LCD_20x4_C_file.c"
  5440 ;; Parameters:    Size  Location     Type
  5441 ;;  val             2    0[COMRAM] unsigned int 
  5442 ;; Auto vars:     Size  Location     Type
  5443 ;;  j               2    4[COMRAM] unsigned int 
  5444 ;;  i               2    2[COMRAM] unsigned int 
  5445 ;; Return value:  Size  Location     Type
  5446 ;;                  1    wreg      void 
  5447 ;; Registers used:
  5448 ;;		wreg, status,2, status,0
  5449 ;; Tracked objects:
  5450 ;;		On entry : 0/0
  5451 ;;		On exit  : 0/0
  5452 ;;		Unchanged: 0/0
  5453 ;; Data sizes:     COMRAM   BANK0   BANK1   BANK2   BANK3   BANK4   BANK5   BANK6   BANK7
  5454 ;;      Params:         2       0       0       0       0       0       0       0       0
  5455 ;;      Locals:         4       0       0       0       0       0       0       0       0
  5456 ;;      Temps:          0       0       0       0       0       0       0       0       0
  5457 ;;      Totals:         6       0       0       0       0       0       0       0       0
  5458 ;;Total ram usage:        6 bytes
  5459 ;; Hardware stack levels used:    1
  5460 ;; This function calls:
  5461 ;;		Nothing
  5462 ;; This function is called by:
  5463 ;;		_LCD_Command
  5464 ;;		_LCD_Char
  5465 ;;		_LCD_Init
  5466 ;;		_LCD_Clear
  5467 ;; This function uses a non-reentrant model
  5468 ;;
  5469                           
  5470                           	psect	text28
  5471  0023C2                     __ptext28:
  5472                           	callstack 0
  5473  0023C2                     _MSdelay:
  5474                           	callstack 27
  5475  0023C2                     
  5476                           ;LCD_20x4_C_file.c: 78: void MSdelay(unsigned int val);LCD_20x4_C_file.c: 79: {;LCD_20x4
      +                          _C_file.c: 80:      unsigned int i,j;;LCD_20x4_C_file.c: 81:         for(i=0;i<val;i++)
  5477  0023C2  0E00               	movlw	0
  5478  0023C4  6E04               	movwf	(MSdelay@i+1)^0,c
  5479  0023C6  0E00               	movlw	0
  5480  0023C8  6E03               	movwf	MSdelay@i^0,c
  5481  0023CA  EFFA  F011         	goto	l2197
  5482  0023CE                     l2185:
  5483                           
  5484                           ;LCD_20x4_C_file.c: 82:             for(j=0;j<165;j++);
  5485  0023CE  0E00               	movlw	0
  5486  0023D0  6E06               	movwf	(MSdelay@j+1)^0,c
  5487  0023D2  0E00               	movlw	0
  5488  0023D4  6E05               	movwf	MSdelay@j^0,c
  5489  0023D6                     l2191:
  5490  0023D6  4A05               	infsnz	MSdelay@j^0,f,c
  5491  0023D8  2A06               	incf	(MSdelay@j+1)^0,f,c
  5492  0023DA  5006               	movf	(MSdelay@j+1)^0,w,c
  5493  0023DC  E109               	bnz	u1870
  5494  0023DE  0EA5               	movlw	165
  5495  0023E0  5C05               	subwf	MSdelay@j^0,w,c
  5496  0023E2  A0D8               	btfss	status,0,c
  5497  0023E4  EFF6  F011         	goto	u1871
  5498  0023E8  EFF8  F011         	goto	u1870
  5499  0023EC                     u1871:
  5500  0023EC  EFEB  F011         	goto	l2191
  5501  0023F0                     u1870:
  5502  0023F0  4A03               	infsnz	MSdelay@i^0,f,c
  5503  0023F2  2A04               	incf	(MSdelay@i+1)^0,f,c
  5504  0023F4                     l2197:
  5505  0023F4  5001               	movf	MSdelay@val^0,w,c
  5506  0023F6  5C03               	subwf	MSdelay@i^0,w,c
  5507  0023F8  5002               	movf	(MSdelay@val+1)^0,w,c
  5508  0023FA  5804               	subwfb	(MSdelay@i+1)^0,w,c
  5509  0023FC  A0D8               	btfss	status,0,c
  5510  0023FE  EF03  F012         	goto	u1881
  5511  002402  EF05  F012         	goto	u1880
  5512  002406                     u1881:
  5513  002406  EFE7  F011         	goto	l2185
  5514  00240A                     u1880:
  5515  00240A  0012               	return		;funcret
  5516  00240C                     __end_of_MSdelay:
  5517                           	callstack 0
  5518                           
  5519 ;; *************** function _Irrigation_Management *****************
  5520 ;; Defined at:
  5521 ;;		line 101 in file "GPS_Source_File.c"
  5522 ;; Parameters:    Size  Location     Type
  5523 ;;  RH              1    wreg     unsigned char 
  5524 ;;  T               1    0[COMRAM] unsigned char 
  5525 ;; Auto vars:     Size  Location     Type
  5526 ;;  RH              1    3[COMRAM] unsigned char 
  5527 ;; Return value:  Size  Location     Type
  5528 ;;                  1    wreg      void 
  5529 ;; Registers used:
  5530 ;;		wreg, status,2, status,0
  5531 ;; Tracked objects:
  5532 ;;		On entry : 0/0
  5533 ;;		On exit  : 0/0
  5534 ;;		Unchanged: 0/0
  5535 ;; Data sizes:     COMRAM   BANK0   BANK1   BANK2   BANK3   BANK4   BANK5   BANK6   BANK7
  5536 ;;      Params:         1       0       0       0       0       0       0       0       0
  5537 ;;      Locals:         1       0       0       0       0       0       0       0       0
  5538 ;;      Temps:          2       0       0       0       0       0       0       0       0
  5539 ;;      Totals:         4       0       0       0       0       0       0       0       0
  5540 ;;Total ram usage:        4 bytes
  5541 ;; Hardware stack levels used:    1
  5542 ;; This function calls:
  5543 ;;		Nothing
  5544 ;; This function is called by:
  5545 ;;		_main
  5546 ;; This function uses a non-reentrant model
  5547 ;;
  5548                           
  5549                           	psect	text29
  5550  002374                     __ptext29:
  5551                           	callstack 0
  5552  002374                     _Irrigation_Management:
  5553                           	callstack 30
  5554                           
  5555                           ;incstack = 0
  5556                           ;Irrigation_Management@RH stored from wreg
  5557  002374  6E04               	movwf	Irrigation_Management@RH^0,c
  5558  002376                     
  5559                           ;GPS_Source_File.c: 101: void Irrigation_Management(char RH, char T);GPS_Source_File.c: 
      +                          102: {;GPS_Source_File.c: 103:     if(RH<25 || (T<=20 & T>0))
  5560  002376  0E18               	movlw	24
  5561  002378  6404               	cpfsgt	Irrigation_Management@RH^0,c
  5562  00237A  EFC1  F011         	goto	u3101
  5563  00237E  EFC3  F011         	goto	u3100
  5564  002382                     u3101:
  5565  002382  EFD3  F011         	goto	l69
  5566  002386                     u3100:
  5567  002386  0E15               	movlw	21
  5568  002388  6001               	cpfslt	Irrigation_Management@T^0,c
  5569  00238A  EFC9  F011         	goto	u3111
  5570  00238E  EFCB  F011         	goto	u3110
  5571  002392                     u3111:
  5572  002392  EFE0  F011         	goto	l70
  5573  002396                     u3110:
  5574  002396  5001               	movf	Irrigation_Management@T^0,w,c
  5575  002398  B4D8               	btfsc	status,2,c
  5576  00239A  EFD1  F011         	goto	u3121
  5577  00239E  EFD3  F011         	goto	u3120
  5578  0023A2                     u3121:
  5579  0023A2  EFE0  F011         	goto	l70
  5580  0023A6                     u3120:
  5581  0023A6                     l69:
  5582                           
  5583                           ;GPS_Source_File.c: 104:     {;GPS_Source_File.c: 105:         LATB3=0xFF;
  5584  0023A6  868A               	bsf	3978,3,c	;volatile
  5585  0023A8                     
  5586                           ;GPS_Source_File.c: 106:         _delay((unsigned long)((500)*(8000000/4000.0)));
  5587  0023A8  0E06               	movlw	6
  5588  0023AA  6E03               	movwf	(??_Irrigation_Management+1)^0,c
  5589  0023AC  0E13               	movlw	19
  5590  0023AE  6E02               	movwf	??_Irrigation_Management^0,c
  5591  0023B0  0EAE               	movlw	174
  5592  0023B2                     u3177:
  5593  0023B2  2EE8               	decfsz	wreg,f,c
  5594  0023B4  D7FE               	bra	u3177
  5595  0023B6  2E02               	decfsz	??_Irrigation_Management^0,f,c
  5596  0023B8  D7FC               	bra	u3177
  5597  0023BA  2E03               	decfsz	(??_Irrigation_Management+1)^0,f,c
  5598  0023BC  D7FA               	bra	u3177
  5599  0023BE                     
  5600                           ;GPS_Source_File.c: 107:         LATB3=0;
  5601  0023BE  968A               	bcf	3978,3,c	;volatile
  5602  0023C0                     l70:
  5603  0023C0  0012               	return		;funcret
  5604  0023C2                     __end_of_Irrigation_Management:
  5605                           	callstack 0
  5606                           
  5607 ;; *************** function _DHT11_Start *****************
  5608 ;; Defined at:
  5609 ;;		line 21 in file "DHT11_Source_File.c"
  5610 ;; Parameters:    Size  Location     Type
  5611 ;;		None
  5612 ;; Auto vars:     Size  Location     Type
  5613 ;;		None
  5614 ;; Return value:  Size  Location     Type
  5615 ;;                  1    wreg      void 
  5616 ;; Registers used:
  5617 ;;		wreg
  5618 ;; Tracked objects:
  5619 ;;		On entry : 0/0
  5620 ;;		On exit  : 0/0
  5621 ;;		Unchanged: 0/0
  5622 ;; Data sizes:     COMRAM   BANK0   BANK1   BANK2   BANK3   BANK4   BANK5   BANK6   BANK7
  5623 ;;      Params:         0       0       0       0       0       0       0       0       0
  5624 ;;      Locals:         0       0       0       0       0       0       0       0       0
  5625 ;;      Temps:          1       0       0       0       0       0       0       0       0
  5626 ;;      Totals:         1       0       0       0       0       0       0       0       0
  5627 ;;Total ram usage:        1 bytes
  5628 ;; Hardware stack levels used:    1
  5629 ;; This function calls:
  5630 ;;		Nothing
  5631 ;; This function is called by:
  5632 ;;		_main
  5633 ;; This function uses a non-reentrant model
  5634 ;;
  5635                           
  5636                           	psect	text30
  5637  0025AA                     __ptext30:
  5638                           	callstack 0
  5639  0025AA                     _DHT11_Start:
  5640                           	callstack 30
  5641  0025AA                     
  5642                           ;DHT11_Source_File.c: 23:     TRISAbits.RA0 = 0;
  5643  0025AA  9092               	bcf	146,0,c	;volatile
  5644                           
  5645                           ;DHT11_Source_File.c: 24:     LATA0 = 0;
  5646  0025AC  9089               	bcf	3977,0,c	;volatile
  5647  0025AE                     
  5648                           ;DHT11_Source_File.c: 25:     _delay((unsigned long)((18)*(8000000/4000.0)));
  5649  0025AE  0E2F               	movlw	47
  5650  0025B0  6E01               	movwf	??_DHT11_Start^0,c
  5651  0025B2  0EC0               	movlw	192
  5652  0025B4                     u3187:
  5653  0025B4  2EE8               	decfsz	wreg,f,c
  5654  0025B6  D7FE               	bra	u3187
  5655  0025B8  2E01               	decfsz	??_DHT11_Start^0,f,c
  5656  0025BA  D7FC               	bra	u3187
  5657  0025BC                     
  5658                           ;DHT11_Source_File.c: 26:     LATA0 = 1;
  5659  0025BC  8089               	bsf	3977,0,c	;volatile
  5660                           
  5661                           ;DHT11_Source_File.c: 27:     _delay((unsigned long)((20)*(8000000/4000000.0)));
  5662  0025BE  0E0D               	movlw	13
  5663  0025C0                     u3197:
  5664  0025C0  2EE8               	decfsz	wreg,f,c
  5665  0025C2  D7FE               	bra	u3197
  5666  0025C4  F000               	nop	
  5667  0025C6                     
  5668                           ;DHT11_Source_File.c: 28:     TRISAbits.RA0 = 1;
  5669  0025C6  8092               	bsf	146,0,c	;volatile
  5670  0025C8  0012               	return		;funcret
  5671  0025CA                     __end_of_DHT11_Start:
  5672                           	callstack 0
  5673                           
  5674 ;; *************** function _DHT11_ReadData *****************
  5675 ;; Defined at:
  5676 ;;		line 5 in file "DHT11_Source_File.c"
  5677 ;; Parameters:    Size  Location     Type
  5678 ;;		None
  5679 ;; Auto vars:     Size  Location     Type
  5680 ;;  data            1    1[COMRAM] unsigned char 
  5681 ;;  i               1    0[COMRAM] unsigned char 
  5682 ;; Return value:  Size  Location     Type
  5683 ;;                  1    wreg      unsigned char 
  5684 ;; Registers used:
  5685 ;;		wreg, status,2, status,0
  5686 ;; Tracked objects:
  5687 ;;		On entry : 0/0
  5688 ;;		On exit  : 0/0
  5689 ;;		Unchanged: 0/0
  5690 ;; Data sizes:     COMRAM   BANK0   BANK1   BANK2   BANK3   BANK4   BANK5   BANK6   BANK7
  5691 ;;      Params:         0       0       0       0       0       0       0       0       0
  5692 ;;      Locals:         2       0       0       0       0       0       0       0       0
  5693 ;;      Temps:          0       0       0       0       0       0       0       0       0
  5694 ;;      Totals:         2       0       0       0       0       0       0       0       0
  5695 ;;Total ram usage:        2 bytes
  5696 ;; Hardware stack levels used:    1
  5697 ;; This function calls:
  5698 ;;		Nothing
  5699 ;; This function is called by:
  5700 ;;		_main
  5701 ;; This function uses a non-reentrant model
  5702 ;;
  5703                           
  5704                           	psect	text31
  5705  0022C6                     __ptext31:
  5706                           	callstack 0
  5707  0022C6                     _DHT11_ReadData:
  5708                           	callstack 30
  5709  0022C6                     
  5710                           ;DHT11_Source_File.c: 7:     char i,data = 0;
  5711  0022C6  0E00               	movlw	0
  5712  0022C8  6E02               	movwf	DHT11_ReadData@data^0,c
  5713                           
  5714                           ;DHT11_Source_File.c: 8:     for(i=0;i<8;i++)
  5715  0022CA  0E00               	movlw	0
  5716  0022CC  6E01               	movwf	DHT11_ReadData@i^0,c
  5717  0022CE                     l162:
  5718  0022CE  A080               	btfss	128,0,c	;volatile
  5719  0022D0  EF6C  F011         	goto	u2971
  5720  0022D4  EF6E  F011         	goto	u2970
  5721  0022D8                     u2971:
  5722  0022D8  EF67  F011         	goto	l162
  5723  0022DC                     u2970:
  5724  0022DC                     
  5725                           ;DHT11_Source_File.c: 11:         _delay((unsigned long)((30)*(8000000/4000000.0)));
  5726  0022DC  0E14               	movlw	20
  5727  0022DE                     u3207:
  5728  0022DE  2EE8               	decfsz	wreg,f,c
  5729  0022E0  D7FE               	bra	u3207
  5730  0022E2                     
  5731                           ;DHT11_Source_File.c: 12:         if(PORTAbits.RA0 & 1)
  5732  0022E2  A080               	btfss	128,0,c	;volatile
  5733  0022E4  EF76  F011         	goto	u2981
  5734  0022E8  EF78  F011         	goto	u2980
  5735  0022EC                     u2981:
  5736  0022EC  EF7C  F011         	goto	l2835
  5737  0022F0                     u2980:
  5738  0022F0                     
  5739                           ;DHT11_Source_File.c: 13:           data = ((data<<1) | 1);
  5740  0022F0  80D8               	bsf	status,0,c
  5741  0022F2  3602               	rlcf	DHT11_ReadData@data^0,f,c
  5742  0022F4  EF7F  F011         	goto	l167
  5743  0022F8                     l2835:
  5744                           
  5745                           ;DHT11_Source_File.c: 15:           data = (data<<1);
  5746  0022F8  5002               	movf	DHT11_ReadData@data^0,w,c
  5747  0022FA  2402               	addwf	DHT11_ReadData@data^0,w,c
  5748  0022FC  6E02               	movwf	DHT11_ReadData@data^0,c
  5749  0022FE                     l167:
  5750  0022FE  B080               	btfsc	128,0,c	;volatile
  5751  002300  EF84  F011         	goto	u2991
  5752  002304  EF86  F011         	goto	u2990
  5753  002308                     u2991:
  5754  002308  EF7F  F011         	goto	l167
  5755  00230C                     u2990:
  5756  00230C                     
  5757                           ;DHT11_Source_File.c: 17:     }
  5758  00230C  2A01               	incf	DHT11_ReadData@i^0,f,c
  5759  00230E  0E07               	movlw	7
  5760  002310  6401               	cpfsgt	DHT11_ReadData@i^0,c
  5761  002312  EF8D  F011         	goto	u3001
  5762  002316  EF8F  F011         	goto	u3000
  5763  00231A                     u3001:
  5764  00231A  EF67  F011         	goto	l162
  5765  00231E                     u3000:
  5766  00231E                     
  5767                           ;DHT11_Source_File.c: 18:     return data;
  5768  00231E  5002               	movf	DHT11_ReadData@data^0,w,c
  5769  002320  0012               	return		;funcret
  5770  002322                     __end_of_DHT11_ReadData:
  5771                           	callstack 0
  5772                           
  5773 ;; *************** function _DHT11_CheckResponse *****************
  5774 ;; Defined at:
  5775 ;;		line 31 in file "DHT11_Source_File.c"
  5776 ;; Parameters:    Size  Location     Type
  5777 ;;		None
  5778 ;; Auto vars:     Size  Location     Type
  5779 ;;		None
  5780 ;; Return value:  Size  Location     Type
  5781 ;;                  1    wreg      void 
  5782 ;; Registers used:
  5783 ;;		None
  5784 ;; Tracked objects:
  5785 ;;		On entry : 0/0
  5786 ;;		On exit  : 0/0
  5787 ;;		Unchanged: 0/0
  5788 ;; Data sizes:     COMRAM   BANK0   BANK1   BANK2   BANK3   BANK4   BANK5   BANK6   BANK7
  5789 ;;      Params:         0       0       0       0       0       0       0       0       0
  5790 ;;      Locals:         0       0       0       0       0       0       0       0       0
  5791 ;;      Temps:          0       0       0       0       0       0       0       0       0
  5792 ;;      Totals:         0       0       0       0       0       0       0       0       0
  5793 ;;Total ram usage:        0 bytes
  5794 ;; Hardware stack levels used:    1
  5795 ;; This function calls:
  5796 ;;		Nothing
  5797 ;; This function is called by:
  5798 ;;		_main
  5799 ;; This function uses a non-reentrant model
  5800 ;;
  5801                           
  5802                           	psect	text32
  5803  002536                     __ptext32:
  5804                           	callstack 0
  5805  002536                     _DHT11_CheckResponse:
  5806                           	callstack 30
  5807  002536                     l176:
  5808  002536  B080               	btfsc	128,0,c	;volatile
  5809  002538  EFA0  F012         	goto	u2941
  5810  00253C  EFA2  F012         	goto	u2940
  5811  002540                     u2941:
  5812  002540  EF9B  F012         	goto	l176
  5813  002544                     u2940:
  5814  002544                     l179:
  5815  002544  A080               	btfss	128,0,c	;volatile
  5816  002546  EFA7  F012         	goto	u2951
  5817  00254A  EFA9  F012         	goto	u2950
  5818  00254E                     u2951:
  5819  00254E  EFA2  F012         	goto	l179
  5820  002552                     u2950:
  5821  002552                     l182:
  5822  002552  B080               	btfsc	128,0,c	;volatile
  5823  002554  EFAE  F012         	goto	u2961
  5824  002558  EFB0  F012         	goto	u2960
  5825  00255C                     u2961:
  5826  00255C  EFA9  F012         	goto	l182
  5827  002560                     u2960:
  5828  002560  0012               	return		;funcret
  5829  002562                     __end_of_DHT11_CheckResponse:
  5830                           	callstack 0
  5831                           
  5832 ;; *************** function _ADC_Init *****************
  5833 ;; Defined at:
  5834 ;;		line 5 in file "ADC_Source_File.c"
  5835 ;; Parameters:    Size  Location     Type
  5836 ;;		None
  5837 ;; Auto vars:     Size  Location     Type
  5838 ;;		None
  5839 ;; Return value:  Size  Location     Type
  5840 ;;                  1    wreg      void 
  5841 ;; Registers used:
  5842 ;;		wreg, status,2
  5843 ;; Tracked objects:
  5844 ;;		On entry : 0/0
  5845 ;;		On exit  : 0/0
  5846 ;;		Unchanged: 0/0
  5847 ;; Data sizes:     COMRAM   BANK0   BANK1   BANK2   BANK3   BANK4   BANK5   BANK6   BANK7
  5848 ;;      Params:         0       0       0       0       0       0       0       0       0
  5849 ;;      Locals:         0       0       0       0       0       0       0       0       0
  5850 ;;      Temps:          0       0       0       0       0       0       0       0       0
  5851 ;;      Totals:         0       0       0       0       0       0       0       0       0
  5852 ;;Total ram usage:        0 bytes
  5853 ;; Hardware stack levels used:    1
  5854 ;; This function calls:
  5855 ;;		Nothing
  5856 ;; This function is called by:
  5857 ;;		_main
  5858 ;; This function uses a non-reentrant model
  5859 ;;
  5860                           
  5861                           	psect	text33
  5862  00261C                     __ptext33:
  5863                           	callstack 0
  5864  00261C                     _ADC_Init:
  5865                           	callstack 30
  5866  00261C                     
  5867                           ;ADC_Source_File.c: 7:     TRISA = 0xFF;
  5868  00261C  6892               	setf	146,c	;volatile
  5869                           
  5870                           ;ADC_Source_File.c: 8:     ADCON1 = 0xFF;
  5871  00261E  68C1               	setf	193,c	;volatile
  5872  002620                     
  5873                           ;ADC_Source_File.c: 9:     ADCON2 = 0x92;
  5874  002620  0E92               	movlw	146
  5875  002622  6EC0               	movwf	192,c	;volatile
  5876                           
  5877                           ;ADC_Source_File.c: 10:     ADRESH=0;
  5878  002624  0E00               	movlw	0
  5879  002626  6EC4               	movwf	196,c	;volatile
  5880                           
  5881                           ;ADC_Source_File.c: 11:     ADRESL=0;
  5882  002628  0E00               	movlw	0
  5883  00262A  6EC3               	movwf	195,c	;volatile
  5884  00262C  0012               	return		;funcret
  5885  00262E                     __end_of_ADC_Init:
  5886                           	callstack 0
  5887                           
  5888                           	psect	rparam
  5889  0000                     
  5890                           	psect	idloc
  5891                           
  5892                           ;Config register IDLOC0 @ 0x200000
  5893                           ;	unspecified, using default values
  5894  200000                     	org	2097152
  5895  200000  FF                 	db	255
  5896                           
  5897                           ;Config register IDLOC1 @ 0x200001
  5898                           ;	unspecified, using default values
  5899  200001                     	org	2097153
  5900  200001  FF                 	db	255
  5901                           
  5902                           ;Config register IDLOC2 @ 0x200002
  5903                           ;	unspecified, using default values
  5904  200002                     	org	2097154
  5905  200002  FF                 	db	255
  5906                           
  5907                           ;Config register IDLOC3 @ 0x200003
  5908                           ;	unspecified, using default values
  5909  200003                     	org	2097155
  5910  200003  FF                 	db	255
  5911                           
  5912                           ;Config register IDLOC4 @ 0x200004
  5913                           ;	unspecified, using default values
  5914  200004                     	org	2097156
  5915  200004  FF                 	db	255
  5916                           
  5917                           ;Config register IDLOC5 @ 0x200005
  5918                           ;	unspecified, using default values
  5919  200005                     	org	2097157
  5920  200005  FF                 	db	255
  5921                           
  5922                           ;Config register IDLOC6 @ 0x200006
  5923                           ;	unspecified, using default values
  5924  200006                     	org	2097158
  5925  200006  FF                 	db	255
  5926                           
  5927                           ;Config register IDLOC7 @ 0x200007
  5928                           ;	unspecified, using default values
  5929  200007                     	org	2097159
  5930  200007  FF                 	db	255
  5931                           
  5932                           	psect	config
  5933                           
  5934                           ;Config register CONFIG1L @ 0x300000
  5935                           ;	unspecified, using default values
  5936                           ;	PLL Prescaler Selection bits
  5937                           ;	PLLDIV = 0x0, unprogrammed default
  5938                           ;	System Clock Postscaler Selection bits
  5939                           ;	CPUDIV = 0x0, unprogrammed default
  5940                           ;	USB Clock Selection bit (used in Full-Speed USB mode only; UCFG:FSEN = 1)
  5941                           ;	USBDIV = 0x0, unprogrammed default
  5942  300000                     	org	3145728
  5943  300000  00                 	db	0
  5944                           
  5945                           ;Config register CONFIG1H @ 0x300001
  5946                           ;	unspecified, using default values
  5947                           ;	Oscillator Selection bits
  5948                           ;	FOSC = 0x5, unprogrammed default
  5949                           ;	Fail-Safe Clock Monitor Enable bit
  5950                           ;	FCMEN = 0x0, unprogrammed default
  5951                           ;	Internal/External Oscillator Switchover bit
  5952                           ;	IESO = 0x0, unprogrammed default
  5953  300001                     	org	3145729
  5954  300001  05                 	db	5
  5955                           
  5956                           ;Config register CONFIG2L @ 0x300002
  5957                           ;	unspecified, using default values
  5958                           ;	Power-up Timer Enable bit
  5959                           ;	PWRT = 0x1, unprogrammed default
  5960                           ;	Brown-out Reset Enable bits
  5961                           ;	BOR = 0x3, unprogrammed default
  5962                           ;	Brown-out Reset Voltage bits
  5963                           ;	BORV = 0x3, unprogrammed default
  5964                           ;	USB Voltage Regulator Enable bit
  5965                           ;	VREGEN = 0x0, unprogrammed default
  5966  300002                     	org	3145730
  5967  300002  1F                 	db	31
  5968                           
  5969                           ;Config register CONFIG2H @ 0x300003
  5970                           ;	unspecified, using default values
  5971                           ;	Watchdog Timer Enable bit
  5972                           ;	WDT = 0x1, unprogrammed default
  5973                           ;	Watchdog Timer Postscale Select bits
  5974                           ;	WDTPS = 0xF, unprogrammed default
  5975  300003                     	org	3145731
  5976  300003  1F                 	db	31
  5977                           
  5978                           ; Padding undefined space
  5979  300004                     	org	3145732
  5980  300004  FF                 	db	255
  5981                           
  5982                           ;Config register CONFIG3H @ 0x300005
  5983                           ;	unspecified, using default values
  5984                           ;	CCP2 MUX bit
  5985                           ;	CCP2MX = 0x1, unprogrammed default
  5986                           ;	PORTB A/D Enable bit
  5987                           ;	PBADEN = 0x1, unprogrammed default
  5988                           ;	Low-Power Timer 1 Oscillator Enable bit
  5989                           ;	LPT1OSC = 0x0, unprogrammed default
  5990                           ;	MCLR Pin Enable bit
  5991                           ;	MCLRE = 0x1, unprogrammed default
  5992  300005                     	org	3145733
  5993  300005  83                 	db	131
  5994                           
  5995                           ;Config register CONFIG4L @ 0x300006
  5996                           ;	unspecified, using default values
  5997                           ;	Stack Full/Underflow Reset Enable bit
  5998                           ;	STVREN = 0x1, unprogrammed default
  5999                           ;	Single-Supply ICSP Enable bit
  6000                           ;	LVP = 0x1, unprogrammed default
  6001                           ;	Dedicated In-Circuit Debug/Programming Port (ICPORT) Enable bit
  6002                           ;	ICPRT = 0x0, unprogrammed default
  6003                           ;	Extended Instruction Set Enable bit
  6004                           ;	XINST = 0x0, unprogrammed default
  6005                           ;	Background Debugger Enable bit
  6006                           ;	DEBUG = 0x1, unprogrammed default
  6007  300006                     	org	3145734
  6008  300006  85                 	db	133
  6009                           
  6010                           ; Padding undefined space
  6011  300007                     	org	3145735
  6012  300007  FF                 	db	255
  6013                           
  6014                           ;Config register CONFIG5L @ 0x300008
  6015                           ;	unspecified, using default values
  6016                           ;	Code Protection bit
  6017                           ;	CP0 = 0x1, unprogrammed default
  6018                           ;	Code Protection bit
  6019                           ;	CP1 = 0x1, unprogrammed default
  6020                           ;	Code Protection bit
  6021                           ;	CP2 = 0x1, unprogrammed default
  6022                           ;	Code Protection bit
  6023                           ;	CP3 = 0x1, unprogrammed default
  6024  300008                     	org	3145736
  6025  300008  0F                 	db	15
  6026                           
  6027                           ;Config register CONFIG5H @ 0x300009
  6028                           ;	unspecified, using default values
  6029                           ;	Boot Block Code Protection bit
  6030                           ;	CPB = 0x1, unprogrammed default
  6031                           ;	Data EEPROM Code Protection bit
  6032                           ;	CPD = 0x1, unprogrammed default
  6033  300009                     	org	3145737
  6034  300009  C0                 	db	192
  6035                           
  6036                           ;Config register CONFIG6L @ 0x30000A
  6037                           ;	unspecified, using default values
  6038                           ;	Write Protection bit
  6039                           ;	WRT0 = 0x1, unprogrammed default
  6040                           ;	Write Protection bit
  6041                           ;	WRT1 = 0x1, unprogrammed default
  6042                           ;	Write Protection bit
  6043                           ;	WRT2 = 0x1, unprogrammed default
  6044                           ;	Write Protection bit
  6045                           ;	WRT3 = 0x1, unprogrammed default
  6046  30000A                     	org	3145738
  6047  30000A  0F                 	db	15
  6048                           
  6049                           ;Config register CONFIG6H @ 0x30000B
  6050                           ;	unspecified, using default values
  6051                           ;	Configuration Register Write Protection bit
  6052                           ;	WRTC = 0x1, unprogrammed default
  6053                           ;	Boot Block Write Protection bit
  6054                           ;	WRTB = 0x1, unprogrammed default
  6055                           ;	Data EEPROM Write Protection bit
  6056                           ;	WRTD = 0x1, unprogrammed default
  6057  30000B                     	org	3145739
  6058  30000B  E0                 	db	224
  6059                           
  6060                           ;Config register CONFIG7L @ 0x30000C
  6061                           ;	unspecified, using default values
  6062                           ;	Table Read Protection bit
  6063                           ;	EBTR0 = 0x1, unprogrammed default
  6064                           ;	Table Read Protection bit
  6065                           ;	EBTR1 = 0x1, unprogrammed default
  6066                           ;	Table Read Protection bit
  6067                           ;	EBTR2 = 0x1, unprogrammed default
  6068                           ;	Table Read Protection bit
  6069                           ;	EBTR3 = 0x1, unprogrammed default
  6070  30000C                     	org	3145740
  6071  30000C  0F                 	db	15
  6072                           
  6073                           ;Config register CONFIG7H @ 0x30000D
  6074                           ;	unspecified, using default values
  6075                           ;	Boot Block Table Read Protection bit
  6076                           ;	EBTRB = 0x1, unprogrammed default
  6077  30000D                     	org	3145741
  6078  30000D  40                 	db	64
  6079                           tosu	equ	0xFFF
  6080                           tosh	equ	0xFFE
  6081                           tosl	equ	0xFFD
  6082                           stkptr	equ	0xFFC
  6083                           pclatu	equ	0xFFB
  6084                           pclath	equ	0xFFA
  6085                           pcl	equ	0xFF9
  6086                           tblptru	equ	0xFF8
  6087                           tblptrh	equ	0xFF7
  6088                           tblptrl	equ	0xFF6
  6089                           tablat	equ	0xFF5
  6090                           prodh	equ	0xFF4
  6091                           prodl	equ	0xFF3
  6092                           indf0	equ	0xFEF
  6093                           postinc0	equ	0xFEE
  6094                           postdec0	equ	0xFED
  6095                           preinc0	equ	0xFEC
  6096                           plusw0	equ	0xFEB
  6097                           fsr0h	equ	0xFEA
  6098                           fsr0l	equ	0xFE9
  6099                           wreg	equ	0xFE8
  6100                           indf1	equ	0xFE7
  6101                           postinc1	equ	0xFE6
  6102                           postdec1	equ	0xFE5
  6103                           preinc1	equ	0xFE4
  6104                           plusw1	equ	0xFE3
  6105                           fsr1h	equ	0xFE2
  6106                           fsr1l	equ	0xFE1
  6107                           bsr	equ	0xFE0
  6108                           indf2	equ	0xFDF
  6109                           postinc2	equ	0xFDE
  6110                           postdec2	equ	0xFDD
  6111                           preinc2	equ	0xFDC
  6112                           plusw2	equ	0xFDB
  6113                           fsr2h	equ	0xFDA
  6114                           fsr2l	equ	0xFD9
  6115                           status	equ	0xFD8

Data Sizes:
    Strings     46
    Constant    0
    Data        0
    BSS         140
    Persistent  0
    Stack       0

Auto Spaces:
    Space          Size  Autos    Used
    COMRAM           95     95      95
    BANK0           160     25     115
    BANK1           256      0      50
    BANK2           256      0       0
    BANK3           256      0       0
    BANK4           256      0       0
    BANK5           256      0       0
    BANK6           256      0       0
    BANK7           256      0       0

Pointer List with Targets:

    strlen@s	PTR const unsigned char  size(2) Largest target is 50
		 -> dbuf(BANK0[32]), val_aux(BANK0[50]), 

    strlen@a	PTR const unsigned char  size(2) Largest target is 50
		 -> dbuf(BANK0[32]), val_aux(BANK0[50]), 

    strcpy@dest	PTR unsigned char  size(2) Largest target is 50
		 -> val_aux(BANK0[50]), 

    strcpy@d	PTR unsigned char  size(2) Largest target is 50
		 -> val_aux(BANK0[50]), 

    strcpy@src	PTR const unsigned char  size(2) Largest target is 10
		 -> STR_14(CODE[3]), STR_11(CODE[2]), main@value(BANK0[10]), 

    strcpy@s	PTR const unsigned char  size(2) Largest target is 10
		 -> STR_14(CODE[3]), STR_11(CODE[2]), main@value(BANK0[10]), 

    strcat@src	PTR const unsigned char  size(2) Largest target is 10
		 -> STR_14(CODE[3]), STR_11(CODE[2]), main@value(BANK0[10]), 

    strcat@dest	PTR unsigned char  size(2) Largest target is 50
		 -> val_aux(BANK0[50]), 

    fputs@s	PTR const unsigned char  size(2) Largest target is 32
		 -> dbuf(BANK0[32]), 

    fputs@fp	PTR struct _IO_FILE size(2) Largest target is 7
		 -> sprintf@f(BANK0[6]), 

    fputc@fp.buffer	PTR unsigned char  size(2) Largest target is 10
		 -> main@value(BANK0[10]), 

    fputc@fp	PTR struct _IO_FILE size(2) Largest target is 7
		 -> sprintf@f(BANK0[6]), 

    vfprintf@ap	PTR PTR void  size(2) Largest target is 2
		 -> sprintf@ap(BANK0[2]), 

    vfprintf@fp	PTR struct _IO_FILE size(2) Largest target is 7
		 -> sprintf@f(BANK0[6]), 

    vfprintf@fmt	PTR const unsigned char  size(2) Largest target is 5
		 -> STR_13(CODE[4]), STR_12(CODE[3]), STR_10(CODE[4]), STR_9(CODE[3]), 
		 -> STR_8(CODE[5]), STR_6(CODE[3]), STR_5(CODE[4]), STR_3(CODE[3]), 

    vfprintf@cfmt	PTR unsigned char  size(2) Largest target is 5
		 -> STR_13(CODE[4]), STR_12(CODE[3]), STR_10(CODE[4]), STR_9(CODE[3]), 
		 -> STR_8(CODE[5]), STR_6(CODE[3]), STR_5(CODE[4]), STR_3(CODE[3]), 

    vfpfcnvrt@fp	PTR struct _IO_FILE size(2) Largest target is 7
		 -> sprintf@f(BANK0[6]), 

    vfpfcnvrt@ap	PTR PTR void  size(2) Largest target is 2
		 -> sprintf@ap(BANK0[2]), 

    vfpfcnvrt@fmt	PTR PTR unsigned char  size(2) Largest target is 2
		 -> vfprintf@cfmt(COMRAM[2]), 

    dtoa@fp	PTR struct _IO_FILE size(2) Largest target is 7
		 -> sprintf@f(BANK0[6]), 

    pad@fp	PTR struct _IO_FILE size(2) Largest target is 7
		 -> sprintf@f(BANK0[6]), 

    pad@buf	PTR unsigned char  size(2) Largest target is 32
		 -> dbuf(BANK0[32]), 

    sprintf@fmt	PTR const unsigned char  size(2) Largest target is 5
		 -> STR_13(CODE[4]), STR_12(CODE[3]), STR_10(CODE[4]), STR_9(CODE[3]), 
		 -> STR_8(CODE[5]), STR_6(CODE[3]), STR_5(CODE[4]), STR_3(CODE[3]), 

    sprintf@s	PTR unsigned char  size(2) Largest target is 10
		 -> main@value(BANK0[10]), 

    sprintf@ap	PTR void [1] size(2) Largest target is 2
		 -> ?_sprintf(COMRAM[2]), 

    S1052_IO_FILE$buffer	PTR unsigned char  size(2) Largest target is 10
		 -> main@value(BANK0[10]), 

    f.buffer	PTR unsigned char  size(2) Largest target is 10
		 -> main@value(BANK0[10]), 

    memset@dest	PTR void  size(2) Largest target is 10
		 -> main@value(BANK0[10]), 

    memset@s	PTR unsigned char  size(2) Largest target is 10
		 -> main@value(BANK0[10]), 

    USART_SendString@out	PTR const unsigned char  size(2) Largest target is 50
		 -> val_aux(BANK0[50]), 

    LCD_String_xy@str	PTR const unsigned char  size(2) Largest target is 11
		 -> STR_7(CODE[11]), STR_4(CODE[7]), STR_2(CODE[7]), STR_1(CODE[7]), 

    LCD_String@str	PTR const unsigned char  size(2) Largest target is 11
		 -> STR_7(CODE[11]), STR_4(CODE[7]), main@value(BANK0[10]), STR_2(CODE[7]), 
		 -> STR_1(CODE[7]), 

    sp__strcat	PTR unsigned char  size(2) Largest target is 50
		 -> val_aux(BANK0[50]), 

    sp__strcpy	PTR unsigned char  size(2) Largest target is 50
		 -> val_aux(BANK0[50]), 

    sp__memset	PTR void  size(2) Largest target is 10
		 -> main@value(BANK0[10]), 


Critical Paths under _main in COMRAM

    _main->_sprintf
    _strcat->_strcpy
    _strcpy->_strlen
    _sprintf->_vfprintf
    _vfprintf->_vfpfcnvrt
    _vfpfcnvrt->_dtoa
    _dtoa->_pad
    _pad->_fputs
    _fputs->_fputc
    _abs->___aomod
    _USART_SendString->_USART_TxChar
    _USART_Init->___fladd
    ___fldiv->___xxtofl
    ___fladd->___fldiv
    _LCD_String_xy->_LCD_String
    _LCD_String->_LCD_Char
    _LCD_Char->_MSdelay
    _LCD_Init->_LCD_Command
    _LCD_Command->_MSdelay

Critical Paths under _main in BANK0

    _main->_sprintf

Critical Paths under _main in BANK1

    None.

Critical Paths under _main in BANK2

    None.

Critical Paths under _main in BANK3

    None.

Critical Paths under _main in BANK4

    None.

Critical Paths under _main in BANK5

    None.

Critical Paths under _main in BANK6

    None.

Critical Paths under _main in BANK7

    None.

Call Graph Tables:

 ---------------------------------------------------------------------------------
 (Depth) Function   	        Calls       Base Space   Used Autos Params    Refs
 ---------------------------------------------------------------------------------
 (0) _main                                                17    17      0   21356
                                             93 COMRAM     2     2      0
                                             10 BANK0     15    15      0
                           _ADC_Init
                _DHT11_CheckResponse
                     _DHT11_ReadData
                        _DHT11_Start
              _Irrigation_Management
                           _LCD_Char
                           _LCD_Init
                         _LCD_String
                      _LCD_String_xy
                         _USART_Init
                   _USART_SendString
                             _memset
                            _sprintf
                             _strcat
                             _strcpy
 ---------------------------------------------------------------------------------
 (1) _strcat                                               4     0      4    1474
                                             14 COMRAM     4     0      4
                             _strcpy
                             _strlen
 ---------------------------------------------------------------------------------
 (1) _strcpy                                              10     6      4     400
                                              4 COMRAM    10     6      4
                             _strlen (ARG)
 ---------------------------------------------------------------------------------
 (1) _sprintf                                             16    10      6    7596
                                             87 COMRAM     6     0      6
                                              0 BANK0     10    10      0
                           _vfprintf
 ---------------------------------------------------------------------------------
 (2) _vfprintf                                             8     2      6    6181
                                             79 COMRAM     8     2      6
                          _vfpfcnvrt
 ---------------------------------------------------------------------------------
 (3) _vfpfcnvrt                                           42    36      6    5827
                                             63 COMRAM    16    10      6
                               _dtoa
                              _fputc
 ---------------------------------------------------------------------------------
 (4) _dtoa                                                36    26     10    4434
                                             27 COMRAM    36    26     10
                            ___aodiv
                            ___aomod
                                _abs
                                _pad
 ---------------------------------------------------------------------------------
 (5) _pad                                                 11     5      6    2785
                                             16 COMRAM    11     5      6
                              _fputc
                              _fputs
                             _strlen
 ---------------------------------------------------------------------------------
 (2) _strlen                                               4     2      2     242
                                              0 COMRAM     4     2      2
 ---------------------------------------------------------------------------------
 (6) _fputs                                                7     3      4    1235
                                              9 COMRAM     7     3      4
                              _fputc
 ---------------------------------------------------------------------------------
 (4) _fputc                                                9     5      4     834
                                              0 COMRAM     9     5      4
                              _putch
 ---------------------------------------------------------------------------------
 (5) _putch                                                1     1      0       0
 ---------------------------------------------------------------------------------
 (5) _abs                                                  4     2      2     142
                                             18 COMRAM     4     2      2
                            ___aomod (ARG)
 ---------------------------------------------------------------------------------
 (5) ___aomod                                             18     2     16     448
                                              0 COMRAM    18     2     16
 ---------------------------------------------------------------------------------
 (5) ___aodiv                                             26    10     16     452
                                              0 COMRAM    26    10     16
 ---------------------------------------------------------------------------------
 (1) _memset                                              12     6      6    1175
                                              0 COMRAM    12     6      6
 ---------------------------------------------------------------------------------
 (1) _USART_SendString                                     2     0      2     143
                                              1 COMRAM     2     0      2
                       _USART_TxChar
 ---------------------------------------------------------------------------------
 (2) _USART_TxChar                                         1     1      0      22
                                              0 COMRAM     1     1      0
 ---------------------------------------------------------------------------------
 (1) _USART_Init                                           8     4      4    4611
                                             55 COMRAM     8     4      4
                            ___fladd
                            ___fldiv
                            ___fltol
                           ___xxtofl
 ---------------------------------------------------------------------------------
 (2) ___xxtofl                                            14    10      4     398
                                              0 COMRAM    14    10      4
 ---------------------------------------------------------------------------------
 (2) ___fltol                                             10     6      4     305
                                              0 COMRAM    10     6      4
 ---------------------------------------------------------------------------------
 (2) ___fldiv                                             25    17      8    1399
                                             14 COMRAM    25    17      8
                           ___xxtofl (ARG)
 ---------------------------------------------------------------------------------
 (2) ___fladd                                             16     8      8    2388
                                             39 COMRAM    16     8      8
                            ___fldiv (ARG)
                           ___xxtofl (ARG)
 ---------------------------------------------------------------------------------
 (1) _LCD_String_xy                                        4     1      3    2371
                                              9 COMRAM     4     1      3
                        _LCD_Command
                         _LCD_String
 ---------------------------------------------------------------------------------
 (2) _LCD_String                                           4     2      2     995
                                              7 COMRAM     2     0      2
                           _LCD_Char
 ---------------------------------------------------------------------------------
 (3) _LCD_Char                                             1     1      0     570
                                              6 COMRAM     1     1      0
                            _MSdelay
 ---------------------------------------------------------------------------------
 (1) _LCD_Init                                             0     0      0    1118
                        _LCD_Command
                            _MSdelay
 ---------------------------------------------------------------------------------
 (2) _LCD_Command                                          1     1      0     570
                                              6 COMRAM     1     1      0
                            _MSdelay
 ---------------------------------------------------------------------------------
 (4) _MSdelay                                              6     4      2     548
                                              0 COMRAM     6     4      2
 ---------------------------------------------------------------------------------
 (1) _Irrigation_Management                                4     3      1     142
                                              0 COMRAM     4     3      1
 ---------------------------------------------------------------------------------
 (1) _DHT11_Start                                          1     1      0       0
                                              0 COMRAM     1     1      0
 ---------------------------------------------------------------------------------
 (1) _DHT11_ReadData                                       2     2      0     115
                                              0 COMRAM     2     2      0
 ---------------------------------------------------------------------------------
 (1) _DHT11_CheckResponse                                  0     0      0       0
 ---------------------------------------------------------------------------------
 (1) _ADC_Init                                             0     0      0       0
 ---------------------------------------------------------------------------------
 Estimated maximum stack depth 6
 ---------------------------------------------------------------------------------

 Call Graph Graphs:

 _main (ROOT)
   _ADC_Init
   _DHT11_CheckResponse
   _DHT11_ReadData
   _DHT11_Start
   _Irrigation_Management
   _LCD_Char
     _MSdelay
   _LCD_Init
     _LCD_Command
       _MSdelay
     _MSdelay
   _LCD_String
     _LCD_Char
       _MSdelay
   _LCD_String_xy
     _LCD_Command
       _MSdelay
     _LCD_String
       _LCD_Char
         _MSdelay
   _USART_Init
     ___fladd
       ___fldiv (ARG)
         ___xxtofl (ARG)
       ___xxtofl (ARG)
     ___fldiv
       ___xxtofl (ARG)
     ___fltol
     ___xxtofl
   _USART_SendString
     _USART_TxChar
   _memset
   _sprintf
     _vfprintf
       _vfpfcnvrt
         _dtoa
           ___aodiv
           ___aomod
           _abs
             ___aomod (ARG)
           _pad
             _fputc
               _putch
             _fputs
               _fputc
                 _putch
             _strlen
         _fputc
           _putch
   _strcat
     _strcpy
       _strlen (ARG)
     _strlen
   _strcpy
     _strlen (ARG)

 Address spaces:
Name               Size   Autos  Total    Cost      Usage
BIGRAM             7FF      0       0      21        0.0%
EEDATA             100      0       0       0        0.0%
BITBANK7           100      0       0      18        0.0%
BANK7              100      0       0      19        0.0%
BITBANK6           100      0       0      16        0.0%
BANK6              100      0       0      17        0.0%
BITBANK5           100      0       0      14        0.0%
BANK5              100      0       0      15        0.0%
BITBANK4           100      0       0      12        0.0%
BANK4              100      0       0      13        0.0%
BITBANK3           100      0       0      10        0.0%
BANK3              100      0       0      11        0.0%
BITBANK2           100      0       0       8        0.0%
BANK2              100      0       0       9        0.0%
BITBANK1           100      0       0       6        0.0%
BANK1              100      0      32       7       19.5%
BITBANK0            A0      0       0       4        0.0%
BANK0               A0     19      73       5       71.9%
BITCOMRAM           5F      0       0       0        0.0%
COMRAM              5F     5F      5F       1      100.0%
BITSFR               0      0       0     200        0.0%
SFR                  0      0       0     200        0.0%
STACK                0      0       0       2        0.0%
NULL                 0      0       0       0        0.0%
ABS                  0      0     104      20        0.0%
DATA                 0      0     104       3        0.0%
CODE                 0      0       0       0        0.0%


Microchip Technology PIC18 Macro Assembler V2.31 build 20201012212115 
Symbol Table                                                                                   Mon Dec 14 22:03:01 2020

                  ___fldiv@aexp 0027                    ___fldiv@bexp 0026                    ___fldiv@sign 001F  
                  ?_LCD_Command 0001                              l53 13A6                              l70 23C0  
                            l92 25E6                              l69 23A6                              l95 24CE  
                            l89 2604                              _GO 007E11                     ?_LCD_String 0008  
                           l101 2268                             l111 21A8                             l122 240A  
                           l107 219C                             l212 211A                             l143 262C  
                           l215 2608                             l231 2534                             l170 2320  
                           l162 22CE                             l218 261A                             l173 25C8  
                           l182 2552                             l167 22FE                             l176 2536  
                           l185 2560                             l361 1DF0                             l179 2544  
                           l531 1EF6                             l348 1B16                             l821 0EAC  
                           l830 0F94                             l903 1926                             l816 1088  
                           l762 0A1E                             l818 0EE8                             l922 2372  
                           l771 0CEE                             l763 0A0C                             l827 0F2E  
                           l764 09D2                             l829 0FA6                             l909 1C8C  
                           l952 204A                             l960 112A                             l954 2086  
                           l962 1132                             l779 0B38                             l788 0C08  
                           l892 198E                             l980 136A                             l789 0BF6  
                           l949 2008                             l896 18CA                             l889 1832  
                           l993 2202                             l994 220A                             l987 17DA  
                           l998 2486                   main@T_Decimal 00D0                             _abs 2450  
                           _pad 1FC2                             wreg 000FE8                    ___fltol@exp1 000A  
                          l1001 248E                            l1013 1FC0                            l1021 244E  
                          l1031 2586                            l1024 262E                            l1043 2504  
                          ?_abs 0013                            l2101 1A4C                            l1037 22C4  
                          l2111 1AC0                            l2103 1A5E                            l2105 1A8C  
                          l2113 1AC6                            l2121 1C8E                            l2201 10AA  
                          l3001 1536                            l2115 1AD6                            l2107 1AAC  
                          l2131 1CD2                            l2123 1C92                            l2051 1F26  
                          l2211 111E                            l2203 10D2                            l3011 15A8  
                          l3003 1550                            l2117 1AF6                            l2109 1AAE  
                          l2141 1D3A                            l2133 1CF2                            l2125 1CA0  
                          l2053 1F44                            l2045 1EF8                            l2061 2418  
                          l2221 1168                            l2213 113A                            l2205 10F2  
                          l3021 160A                            l3013 15BC                            l3005 1564  
                          l2151 1DB0                            l2143 1D68                            l2135 1D10  
                          l2127 1CC0                            l2055 1F7A                            l2047 1F0A  
                          l2063 242A                            l2071 24E0                            l2231 1204  
                          l2223 1170                            l2215 114C                            l2207 1102  
                          l2311 17C8                            l2303 178A                            l3015 15D6  
                          l3007 157A                            l2321 2234                            l2401 0940  
                          l2081 19A2                            l2153 1DD0                            l2145 1D88  
                          l2137 1D18                            l2129 1CC4                            l2049 1F1C  
                          l2065 242E                            l2073 24F8                            l2161 1FE6  
                          l2241 12D4                            l2225 1176                            l2233 1268  
                          l2217 115A                            l2209 1104                            l2305 1798  
                          l3017 15EA                            l3009 158E                            l2331 25EE  
                          l2323 2238                            l2411 0954                            l2403 0944  
                          l2091 19F8                            l2083 19C2                            l2147 1D9A  
                          l2139 1D2C                            l2059 240C                            l2067 24D0  
                          l2171 202C                            l2163 1FF4                            l2251 131E  
                          l2235 1282                            l2243 12E4                            l2227 11F8  
                          l2219 1160                            l3019 15FE                            l2341 25F8  
                          l2333 25F0                            l2261 25CC                            l2317 220C  
                          l2501 0BA6                            l2421 0968                            l2413 0958  
                          l2405 0948                            l2093 1A04                            l2085 19C6  
                          l2077 1990                            l2149 1DA0                            l2181 246A  
                          l2069 24DC                            l2173 205A                            l2165 2000  
                          l2157 1FC2                            l2253 132A                            l2245 12F6  
                          l2237 12A0                            l2229 11FE                            l2309 17A4  
                          l2325 226A                            l2191 23D6                            l2183 23C2  
                          l2335 25F2                            l2271 25D8                            l2263 25D0  
                          l2319 2210                            l2511 0BD8                            l2503 0BB6  
                          l2431 09BA                            l2423 096C                            l2415 095C  
                          l2407 094C                            l2351 084A                            l2343 2608  
                          l2095 1A22                            l2087 19D4                            l2079 1994  
                          l2175 206E                            l2167 2014                            l2159 1FD2  
                          l2255 1332                            l2247 1306                            l2239 12BA  
                          l2327 227A                            l2193 23DA                            l2185 23CE  
                          l2337 25F4                            l2329 25EA                            l2273 25DA  
                          l2265 25D2                            l2521 0C32                            l2513 0BEE  
                          l2505 0BB8                            l2441 09FE                            l2433 09CA  
                          l2417 0960                            l2409 0950                            l2425 0970  
                          l2361 087E                            l2353 084C                            l2601 0E12  
                          l2345 2616                            l2097 1A2A                            l2089 19F4  
                          l2169 2028                            l2249 130C                            l2257 1342  
                          l2281 166C                            l2195 23F0                            l2339 25F6  
                          l2267 25D4                            l2531 0CAE                            l2523 0C6C  
                          l2507 0BC6                            l2443 0A00                            l2435 09E0  
                          l2427 0974                            l2419 0964                            l2371 08B0  
                          l2355 085C                            l2363 0886                            l2347 0830  
                          l2611 0E50                            l2603 0E12                            l2099 1A3E  
                          l2179 2450                            l2283 1670                            l2275 1628  
                          l2197 23F4                            l2269 25D6                            l2541 0CCE  
                          l2533 0CB2                            l2517 0C18                            l2525 0C6E  
                          l2509 0BCA                            l2461 0A88                            l2453 0A50  
                          l2445 0A0A                            l2437 09EC                            l2429 099E  
                          l2381 08E6                            l2373 08B6                            l2365 0896  
                          l2357 086C                            l2349 083C                            l2621 0E9C  
                          l2613 0E60                            l2701 1E5C                            l2293 1738  
                          l2285 1694                            l2277 164C                            l2543 0CDC  
                          l2535 0CC0                            l2527 0C7E                            l2519 0C24  
                          l2463 0A8C                            l2455 0A60                            l2447 0A2C  
                          l2471 0AAC                            l2439 09F0                            l2391 0922  
                          l2383 08F6                            l2375 08C4                            l2367 089C  
                          l2359 087C                            l2631 0EE6                            l2623 0EAA  
                          l2615 0E70                            l2607 0E26                            l2551 0CFC  
                          l2711 1E8C                            l2703 1E6A                            l2199 108A  
                          l2295 175C                            l2287 16B8                            l2279 165A  
                          l2545 0CDE                            l2537 0CC6                            l2529 0C8E  
                          l2473 0AD2                            l2481 0B28                            l2465 0A9A  
                          l2457 0A6E                            l2449 0A3C                            l2393 0930  
                          l2385 08F8                            l2377 08C6                            l2369 08AE  
                          l2641 0F2C                            l2633 0EF8                            l2625 0EB6  
                          l2617 0E78                            l2609 0E40                            l2561 0D3C  
                          l2553 0D0A                            l2721 1EB6                            l2713 1E96  
                          l2801 2088                            l2297 176A                            l2289 1700  
                          l2811 2620                            l2539 0CC8                            l2491 0B7C  
                          l2483 0B4E                            l2475 0B06                            l2467 0A9C  
                          l2459 0A7C                            l2395 0934                            l2379 08D6  
                          l2387 0900                            l2651 0F8C                            l2635 0F0E  
                          l2643 0F3E                            l2627 0ED4                            l2619 0E88  
                          l2571 0D62                            l2563 0D3E                            l2555 0D0C  
                          l2723 1EC6                            l2731 17DE                            l2803 208C  
                          l2299 177E                            l2821 2536                            l2813 25AA  
                          l2493 0B8A                            l2485 0B5E                            l2477 0B08  
                          l2469 0AA6                            l2397 0938                            l2389 0910  
                          l2661 0FFA                            l2645 0F4C                            l2637 0F14  
                          l2629 0ED6                            l2581 0DA2                            l2573 0D70  
                          l2557 0D1C                            l2565 0D46                            l2549 0CF0  
                          l2725 1ED6                            l2709 1E82                            l2733 17EE  
                          l2805 2112                            l2901 2344                            l2831 22E2  
                          l2823 22C6                            l2815 25AE                            l2911 2396  
                          l2495 0B8C                            l2479 0B18                            l2399 093C  
                          l2671 1064                            l2655 0FB6                            l2663 0FFE  
                          l2647 0F50                            l2639 0F1E                            l2591 0DE2  
                          l2583 0DA4                            l2575 0D72                            l2567 0D56  
                          l2559 0D2C                            l2727 1EE6                            l2719 1EAA  
                          l2751 18B4                            l2743 186C                            l2735 17FC  
                          l2807 2116                            l2903 2360                            l2809 261C  
                          l2841 231E                            l2833 22F0                            l2817 25BC  
                          l2913 23A8                            l2497 0B9A                            l2489 0B72  
                          l2673 1068                            l2665 1018                            l2657 0FC2  
                          l2649 0F5E                            l2593 0DEA                            l2577 0D82  
                          l2585 0DAC                            l2569 0D5C                            l2761 1934  
                          l2753 18C0                            l2745 1874                            l2737 1842  
                          l2921 2506                            l2835 22F8                            l2819 25C6  
                          l2915 23BE                            l2907 2376                            l2851 214E  
                          l2499 0BA2                            l2675 1076                            l2667 102E  
                          l2659 0FD0                            l2595 0DEE                            l2587 0DBC  
                          l2579 0D92                            l2771 197C                            l2763 1936  
                          l2755 18FC                            l2747 1880                            l2739 1858  
                          l2923 250A                            l2931 1370                            l2837 230C  
                          l2829 22DC                            l2909 2386                            l2853 215C  
                          l2861 219C                            l2845 211E                            l2677 107C  
                          l2669 1048                            l2589 0DD2                            l2693 1E1C  
                          l2773 197E                            l2765 193A                            l2757 1908  
                          l2749 18B2                            l2925 2518                            l2781 21C0  
                          l2917 2562                            l2941 137C                            l2933 1372  
                          ?_pad 0011                            l2839 230E                            l2791 24AA  
                          l2855 216E                            l2847 212E                            l2679 107E  
                          l2599 0E02                            l2695 1E46                            l2687 1DF2  
                          l2767 195E                            l2759 1916                            l2927 251C  
                          l2863 1B18                            l2783 21E6                            l2951 13AE  
                          l2943 137E                            l2935 1374                            l2793 24B0  
                          l2785 2490                            l2857 217C                            l2849 213C  
                          l2697 1E48                            l2689 1E08                            l2769 196E  
                          l2881 1C16                            l2873 1B78                            l2777 21AA  
                          l2961 13D2                            l2953 13B6                            l2945 1392  
                          l2937 1378                            l2929 136C                            l2795 24B6  
                          l2787 2498                            l2859 218E                            l2699 1E58  
                          l2891 1C76                            l2875 1BD0                            l2867 1B36  
                          l2779 21B2                            l2971 143E                            l2963 13E4  
                          l2955 13BE                            l2947 1396                            l2939 137A  
                          l2797 24BC                            l2789 24A4                            l2893 1C7A  
                          l2885 1C30                            l2869 1B42                            l2981 147C  
                          l2973 144A                            l2965 13F6                            l2957 13C6  
                          l2949 13AA                            l2799 24C8                            l2887 1C64  
                          l2879 1BEA                            l2895 2322                            l2991 14EA  
                          l2983 1498                            l2975 1464                            l2967 1412  
                          l2959 13CE                            l2889 1C70                            l2897 2334  
                          l2993 14F6                            l2985 14B2                            l2977 1470  
                          l2969 142C                            l2899 233C                            l2995 14FC  
                          l2987 14C4                            l2979 1476                            l2997 1508  
                          l2989 14D0                            l2999 1522                            _ADON 007E10  
                          STR_1 0813                            STR_2 080C                            STR_3 0827  
                          STR_4 081A                            STR_5 0826                            STR_6 0827  
                          STR_7 0801                            STR_8 0821                            STR_9 0827  
                          _CREN 007D5C                            u2000 12E4                            u2001 12E0  
                          u2010 12F6                            u2011 12F2                            u2100 2268  
                          u2020 1306                            u2101 2264                            u2021 1302  
                          u2030 131E                            u2110 22B2                            u2031 131A  
                          u3000 231E                            u2200 08E6                            u2040 164C  
                          u2120 22C4                            u3001 231A                            u2201 08E2  
                          u2041 1648                            u2121 22C0                            u3010 212E  
                          u2210 0922                            u2130 2616                            u2050 1694  
                          u3011 212A                            u2211 091E                            u2131 2612  
                          u2051 1690                            u3100 2386                            u3020 214E  
                          u2300 0A3C                            u2220 0930                            u2140 084A  
                          u2060 16B8                            u3101 2382                            u3021 214A  
                          u2301 0A38                            u2221 092C                            u2141 0846  
                          u2061 16B4                            u2117 22A8                            u3110 2396  
                          u3030 216E                            u2310 0A6E                            u2230 099E  
                          u2150 085C                            u2070 175C                            u3111 2392  
                          u3031 216A                            u2311 0A6A                            u2231 099A  
                          u2151 0858                            u2071 1758                            u3120 23A6  
                          u2080 2230                            u3040 218E                            u2400 0BB6  
                          u2320 0A7C                            u2240 09B6                            u2160 086C  
                          _LATD 000F8C                            u3121 23A2                            u3041 218A  
                          u2401 0BB2                            u2321 0A78                            u2241 09B0  
                          u2161 0868                            u2090 2258                            u2410 0BC6  
                          u2330 0A9A                            u2250 09B8                            u2170 08AE  
                          u3130 2534                            u3050 1B32                            u2411 0BC2  
                          u2331 0A96                            u2171 08AA                            u3131 2530  
                          u3051 1B2E                            u2500 0CAE                            u2420 0BD8  
                          u2340 0AD2                            u2260 09E0                            u2180 08C4  
                          u3060 1B74                            u1700 19D4                            u2501 0CAA  
                          u2421 0BD4                            u2341 0ACE                            u2261 09DC  
                          u2181 08C0                            u3061 1B70                            u1701 19D0  
                          u2510 0CC0                            u2430 0BEE                            u2350 0B18  
                          u2270 09FE                            u2190 08D6                            u3070 1BE6  
                          u1630 1F0A                            u3207 22DE                            u2087 2226  
                          u2511 0CBC                            u2431 0BEA                            u2351 0B14  
                          u2271 09FA                            u2191 08D2                            u3071 1BE2  
                          u1711 19FE                            u1631 1F06                            u2520 0CDC  
                          u2440 0C04                            u2360 0B4E                            u2280 0A1E  
                          u2600 0E12                            u3080 1C2C                            u1720 1A22  
                          u1800 1D68                            u1640 1F1C                            u2097 224E  
                          u2521 0CD8                            u2441 0C00                            u2361 0B4A  
                          u2281 0A1A                            u2601 0E0E                            u3081 1C28  
                          u1721 1A1E                            u1801 1D64                            u1641 1F18  
                          u2450 0C18                            u2370 0B5E                            u2290 0A2C  
                          u2610 0E88                            u2530 0D0A                            u3090 1C8C  
                          u1730 1A4C                            u1810 1DB0                            u1650 1F44  
                          u2451 0C14                            u2371 0B5A                            u2291 0A28  
                          u2611 0E84                            u2531 0D06                            u3091 1C88  
                          u1731 1A48                            u1811 1DAC                            u1651 1F40  
                          u3147 139C                            u2460 0C32                            u2380 0B8A  
                          u2700 0FA2                            u2620 0EAA                            u2540 0D1C  
                          u1740 1A8C                            u1660 1F7A                            u1820 1FD2  
                          u1900 10BC                            u2461 0C2E                            u2381 0B86  
                          u2701 0F9E                            u2621 0EA6                            u2541 0D18  
                          u1741 1A88                            u1661 1F76                            u1821 1FCE  
                          u3157 156E                            u2470 0C6C                            u2390 0B9A  
                          u2710 0FB6                            u2630 0ED4                            u2550 0D2C  
                          u1750 1AD6                            u1670 244E                            u1830 1FF4  
                          u1910 10D2                            u2471 0C68                            u2391 0B96  
                          u2711 0FB2                            u2631 0ED0                            u2551 0D28  
                          u1751 1AD2                            u1671 244A                            u1831 1FF0  
                          u1911 10CE                            u3167 1614                            u2480 0C7E  
                          u2720 0FD0                            u2640 0EF8                            u2560 0D70  
                          u2800 1EA6                            u1760 1CA0                            u1680 24F8  
                          u1840 204A                            u1920 1102                            u3177 23B2  
                          u2481 0C7A                            u2721 0FCC                            u2641 0EF4  
                          u2561 0D6C                            u2801 1EA2                            u1761 1C9C  
                          u1681 24F4                            u1841 2046                            u1921 10FE  
                          u2490 0C8E                            u2730 1018                            u2650 0F0E  
                          u2570 0D82                            u2810 1EC6                            u1690 19A2  
                          u1770 1CD2                            u1850 205A                            u1930 111E  
                          u3187 25B4                            u2491 0C8A                            u2731 1014  
                          u2651 0F0A                            u2571 0D7E                            u2811 1EC2  
                          u1691 199E                            u1771 1CCE                            u1851 2056  
                          u1931 111A                            u2740 1048                            u2660 0F2C  
                          u2580 0D92                            u2820 1ED6                            u2900 1934  
                          u1780 1D10                            u1860 246A                            u1940 114C  
                          u3197 25C0                            u2741 1044                            u2661 0F28  
                          u2581 0D8E                            u2821 1ED2                            u2901 1930  
                          u1781 1D0C                            u1861 2466                            u1941 1148  
                          u1870 23F0                            u2750 1076                            u2670 0F4C  
                          u2590 0DD2                            u2910 196E                            u2830 17EE  
                          u1790 1D3A                            u1950 115A                            u1871 23EC  
                          u2751 1072                            u2671 0F48                            u2591 0DCE  
                          u2911 196A                            u2831 17EA                            u1791 1D36  
                          u1951 1156                            u1880 240A                            u2680 0F5E  
                          u2760 1E08                            u2920 197C                            u2840 17FC  
                          u1960 1282                            u1881 2406                            u2681 0F5A  
                          u2761 1E04                            u2921 1978                            u2841 17F8  
                          u1961 127E                            u2690 0F8C                            u2770 1E3C  
                          u2850 1858                            u1970 12A0                            u1890 10BA  
                          u2930 2202                            u2691 0F88                            u2851 1854  
                          u1971 129C                            u1891 10B4                            u2931 21FE  
                          u2940 2544                            u2780 1E6A                            u2860 18AE  
                          u1980 12BA                            u2941 2540                            u2781 1E66  
                          u2861 18AA                            u1981 12B6                            u2950 2552  
                          u2790 1E7E                            u2870 18F8                            u1990 12D4  
                          u2951 254E                            u2791 1E7A                            u2775 1E32  
                          u2871 18F4                            u1991 12D0                            u2960 2560  
                          u2880 1916                            u2961 255C                            u2881 1912  
                          u2970 22DC                            u2890 1926                            u2971 22D8  
                          u2891 1922                            u2980 22F0                            _RCIF 007CF5  
                          u2981 22EC                            u2990 230C                            u2991 2308  
                          _TXIF 007CF4                            abs@a 0013                            _dbuf 009A  
                          _main 136C                            _dtoa 108A                            _prec 0064  
                          _nout 0060                            pad@i 0018                            pad@p 0015  
                          fsr0h 000FEA                            fsr1h 000FE2                            indf0 000FEF  
                          fsr2h 000FDA                            fsr0l 000FE9                            indf2 000FDF  
                          fsr1l 000FE1                            pad@w 001A                            fsr2l 000FD9  
      __end_of_USART_SendString 2536                __end_of_ADC_Init 262E                            start 0000  
               __end_of_MSdelay 240C                 ___fldiv@new_exp 0020                ??_DHT11_ReadData 0001  
                 _LCD_String_xy 211C            __size_of_DHT11_Start 0020                    ___param_bank 000000  
                main@T_Integral 00D2                           ??_abs 0015                           ??_pad 0017  
              __end_of_LCD_Char 25E8                __end_of_LCD_Init 24D0                   ___fltol@sign1 0009  
               __end_of___aodiv 1B18                 __end_of___fladd 0CF0                           ?_main 0001  
                         ?_dtoa 001C                 __end_of___aomod 1DF2                 __end_of___fldiv 108A  
                         STR_10 0826                           STR_11 082D                           STR_12 0827  
                         STR_13 0826                           STR_14 082A                 __end_of___fltol 1EF8  
                         _LATA0 007C48                           _LATB2 007C52                           _LATC0 007C58  
                         _LATB3 007C53                           _LATC1 007C59                           _LATC2 007C5A  
                         _RCREG 000FAE                           _RCSTA 000FAB                    vfpfcnvrt@fmt 0042  
                         _SPBRG 000FAF                           _TRISA 000F92                           _TRISC 000F94  
                         _TRISD 000F95                           _TXREG 000FAD                           _TXSTA 000FAC  
                         _flags 0066                           _fputc 1EF8                           _fputs 240C  
                         pad@fp 0011                           _width 0062                           _putch 262E  
                         dtoa@d 001E                           dtoa@i 003E                           dtoa@n 0036  
                         dtoa@p 0030                           dtoa@s 0034                           dtoa@w 0032  
                         tablat 000FF5                           status 000FD8             __size_of_LCD_String 005E  
               __end_of_sprintf 2374                  ?_LCD_String_xy 000A  __size_of_Irrigation_Management 004E  
 __end_of_Irrigation_Management 23C2                     ?_USART_Init 0038                 __initialization 2588  
                  __end_of_main 1628                    __end_of_dtoa 136C                          ??_main 005E  
                        ??_dtoa 0026                   __activetblptr 000002          Irrigation_Management@T 0001  
                        _ADCON0 000FC2                          _ADCON1 000FC1                          _ADCON2 000FC0  
                        ?_fputc 0001                          ?_fputs 000A                          _ADRESH 000FC4  
                        _ADRESL 000FC3                          ?_putch 0001             _DHT11_CheckResponse 2536  
              LCD_String_xy@pos 000A                LCD_String_xy@row 000D                LCD_String_xy@str 000B  
                     ??_MSdelay 0003                          _OSCCON 000FD3                          _TRISC6 007CA6  
                        _TRISC7 007CA7                __end_of___xxtofl 1990                    vfprintf@cfmt 0056  
                     ??___aodiv 0011                       ??___fladd 0030                       ??___aomod 0011  
                     ??___fldiv 0017                       ??___fltol 0005            ?_DHT11_CheckResponse 0001  
                        _memset 1B18                          clear_0 258E                          clear_1 259A  
                        pad@buf 0013            __size_of_LCD_Command 001E                          _strcat 2562  
                        dtoa@fp 001C                          _strcpy 226A                          _strlen 24D0  
                        fputc@c 0001                          fputs@c 000E                          fputs@i 000F  
                        fputs@s 000A                       ?_ADC_Init 0001                    __mediumconst 0000  
                        tblptrh 000FF7                          tblptrl 000FF6                          tblptru 000FF8  
           __size_of_USART_Init 0094                          putch@c 0001                __end_of_vfprintf 220C  
                     ??_sprintf 005E                    ___xxtofl@arg 000B                    ___xxtofl@exp 000A  
                  ___xxtofl@val 0001                       ?_LCD_Char 0001                      __accesstop 0060  
       __end_of__initialization 25A0                       ?_LCD_Init 0001                 ??_LCD_String_xy 000D  
                 ___rparam_used 000001                      ___fltol@f1 0001                  __pcstackCOMRAM 0001  
         ??_DHT11_CheckResponse 0001                   __end_of_fputc 1FC2                   __end_of_fputs 2450  
                 __end_of_putch 2630                    ??_LCD_String 000A                      ??_ADC_Init 0001  
                       ??_fputc 0005                         ??_fputs 000E                         ??_putch 0001  
                    __pbssBANK0 0060                      __pbssBANK1 0100                      ??_LCD_Char 0007  
                    ??_LCD_Init 0008              __end_of_LCD_String 226A               ?_USART_SendString 0002  
       Irrigation_Management@RH 0004              ??_USART_SendString 0004                         ?_memset 0001  
                       ?_strcat 000F                         ?_strcpy 0005                         ?_strlen 0001  
                     ?___xxtofl 0001              __size_of_vfpfcnvrt 01B4                         _MSdelay 23C2  
                 ??_DHT11_Start 0001                   LCD_String@str 0008                    ??_USART_Init 003C  
                       __Hparam 0000                         __Lparam 0000                         ___aodiv 1990  
                       ___fladd 0830                         ___aomod 1C8E                         ___fldiv 0CF0  
                       ___fltol 1DF2                       ?_vfprintf 0050                    __psmallconst 0800  
                       __pcinit 2588                 __size_of_memset 0176                         __ramtop 0800  
                       __ptext0 136C                         __ptext1 2562                         __ptext2 226A  
                       __ptext3 2322                         __ptext4 21AA                         __ptext5 1628  
                       __ptext6 108A                         __ptext7 1FC2                         __ptext8 24D0  
                       __ptext9 240C             USART_SendString@out 0002                 __size_of_strcat 0026  
               __size_of_strcpy 005C                 __size_of_strlen 0036                  USART_Init@temp 003C  
                  __size_of_abs 0040                    __size_of_pad 00C6                      ??___xxtofl 0005  
                       _val_aux 0068              __end_of_USART_Init 211C                         _sprintf 2322  
          end_of_initialization 25A0                         fputc@fp 0003                         memset@c 0003  
                       memset@k 0009                         memset@n 0005                         memset@s 000B  
                LCD_Command@cmd 0007                   __Lmediumconst 0000                         fputs@fp 000C  
             __end_of_vfpfcnvrt 17DC                       _RCSTAbits 000FAB             __end_of_DHT11_Start 25CA  
                       postdec2 000FDD           _Irrigation_Management 2374                         postinc0 000FEE  
                       postinc1 000FE6                         postinc2 000FDE                      ??_vfprintf 0056  
                       strcpy@d 000D                         strlen@a 0003                         strcpy@s 000B  
                       strlen@s 0001                       _PORTAbits 000F80         __size_of_DHT11_ReadData 005C  
                   ___fladd@grs 0037                   ___xxtofl@sign 0009                       _TRISAbits 000F92  
                     _TRISBbits 000F93                     ___fldiv@grs 0022                     ___fldiv@rem 001B  
             __size_of_ADC_Init 0012             USART_Init@baud_rate 0038                   ?_USART_TxChar 0001  
             __size_of_LCD_Char 001E               __size_of_LCD_Init 0040              DHT11_ReadData@data 0002  
                 ??_LCD_Command 0007               LCD_Char@char_data 0007                     vfpfcnvrt@ap 0044  
                   vfpfcnvrt@fp 0040                     vfpfcnvrt@ll 0048                  __end_of_memset 1C8E  
                __end_of_strcat 2588                  __end_of_strcpy 22C6                  __end_of_strlen 2506  
           start_initialization 2588                     __end_of_abs 2490                     __end_of_pad 2088  
                ??_USART_TxChar 0001                     _DHT11_Start 25AA     __end_of_DHT11_CheckResponse 2562  
         __end_of_LCD_String_xy 21AA          ?_Irrigation_Management 0001                     vfprintf@fmt 0052  
                      ??_memset 0007                      memset@dest 0001                        ??_strcat 0013  
                      ??_strcpy 0009                        ??_strlen 0003       __size_of_USART_SendString 0030  
                     ___fladd@a 002C                       ___fladd@b 0028                       ___fldiv@a 0013  
                     ___fldiv@b 000F             __end_of_LCD_Command 2606                   __pcstackBANK0 00BA  
              ___aodiv@dividend 0001               __size_of___xxtofl 01B4                        ?_MSdelay 0001  
                     _dtoa$1125 002E                        ?___aodiv 0001                        ?___fladd 0028  
                      ?___aomod 0001                        ?___fldiv 000F                ___aodiv@quotient 0013  
                      ?___fltol 0001                  _DHT11_ReadData 22C6               __size_of_vfprintf 0062  
                   __smallconst 0800                        _ADC_Init 261C                        ?_sprintf 0058  
                __size_of_fputc 00CA                  __size_of_fputs 0044                  __size_of_putch 0002  
                      MSdelay@i 0003                        MSdelay@j 0005                        _LCD_Char 25CA  
                      _LCD_Init 2490                        _PIE1bits 000F9D          __end_of_DHT11_ReadData 2322  
                   _LCD_Command 25E8                       _vfpfcnvrt 1628                      _ADCON0bits 000FC2  
          __end_of_USART_TxChar 261C                       main@value 00C5                __size_of_MSdelay 004A  
                      __Hrparam 0000                      vfprintf@ap 0054                        __Lrparam 0000  
                    vfprintf@fp 0050                 ?_DHT11_ReadData 0001                __size_of___aodiv 0188  
              __size_of___fladd 04C0                __size_of___aomod 0164                __size_of___fldiv 039A  
              __size_of___fltol 0106                      ?_vfpfcnvrt 0040                 DHT11_ReadData@i 0001  
               ___aodiv@divisor 0009                 ___aodiv@counter 0011                _USART_SendString 2506  
                    sprintf@fmt 005A                        ___xxtofl 17DC                      strcat@dest 000F  
                      __ptext10 1EF8                        __ptext11 262E                        __ptext20 1DF2  
                      __ptext12 2450                        __ptext21 0CF0                        __ptext13 1C8E  
                      __ptext30 25AA                        __ptext22 0830                        __ptext14 1990  
                      __ptext31 22C6                        __ptext23 211C                        __ptext15 1B18  
                      __ptext32 2536                        __ptext24 220C                        __ptext16 2506  
                      __ptext33 261C                        __ptext25 25CA                        __ptext17 2606  
                      __ptext26 2490                        __ptext18 2088                        __ptext27 25E8  
                      __ptext19 17DC                        __ptext28 23C2                        __ptext29 2374  
              __size_of_sprintf 0052                      strcpy@dest 0005                   __size_of_main 02BC  
                 __size_of_dtoa 02E2                    ?_DHT11_Start 0001         ??_Irrigation_Management 0002  
                    MSdelay@val 0001                        _vfprintf 21AA                        _stringBT 0100  
                    _LCD_String 220C                ___aomod@dividend 0001                      _INTCONbits 000FF2  
               USART_TxChar@out 0001                       sprintf@ap 00BC                       strcat@src 0011  
                     strcpy@src 0007                 main@RH_Integral 00D1           __size_of_USART_TxChar 0016  
  __size_of_DHT11_CheckResponse 002C                 ___aomod@divisor 0009                     ??_vfpfcnvrt 0046  
               ___aomod@counter 0011                  main@RH_Decimal 00CF                        sprintf@f 00BE  
                      sprintf@s 0058          __size_of_LCD_String_xy 008E                   ___fladd@signs 0034  
                  ___aodiv@sign 0012                    ___fladd@aexp 0035                    ___fladd@bexp 0036  
                  _USART_TxChar 2606                    ___aomod@sign 0012                      _USART_Init 2088  
